 kup

 Timestamp is 4105f014 (Tue Jul 27 15:03:00 2004)

 Preferred load address is 00400000

 Start         Length     Name                   Class
 0001:00000000 0002f800H .text                   CODE
 0001:0002f800 000023d2H .text$x                 CODE
 0002:00000000 00002323H .rdata                  DATA
 0002:00002328 000012acH .rdata$r                DATA
 0002:000035d8 00002e58H .xdata$x                DATA
 0002:00006430 00000000H .edata                  DATA
 0003:00000000 00000004H .CRT$XCA                DATA
 0003:00000004 00000048H .CRT$XCU                DATA
 0003:0000004c 00000004H .CRT$XCZ                DATA
 0003:00000050 00000004H .CRT$XIA                DATA
 0003:00000054 0000000cH .CRT$XIC                DATA
 0003:00000060 00000004H .CRT$XIY                DATA
 0003:00000064 00000004H .CRT$XIZ                DATA
 0003:00000068 00000004H .CRT$XPA                DATA
 0003:0000006c 00000004H .CRT$XPX                DATA
 0003:00000070 00000004H .CRT$XPZ                DATA
 0003:00000074 00000004H .CRT$XTA                DATA
 0003:00000078 00000004H .CRT$XTB                DATA
 0003:0000007c 00000004H .CRT$XTZ                DATA
 0003:00000080 0000512cH .data                   DATA
 0003:000051b0 00002e54H .bss                    DATA
 0004:00000000 0000003cH .idata$2                DATA
 0004:0000003c 00000014H .idata$3                DATA
 0004:00000050 00000134H .idata$4                DATA
 0004:00000184 00000134H .idata$5                DATA
 0004:000002b8 0000054cH .idata$6                DATA
 0005:00000000 00000020H STLPORT_NO_INIT         DATA

  Address         Publics by Value              Rva+Base     Lib:Object

 0001:00000000       ??0cBTree@@QAE@IP6AHPBX0@ZP6AXPAU_iobuf@@PAX@Z@Z 00401000 f   BTree.obj
 0001:0000003a       ?search@cBTree@@QAEPAXPAX@Z 0040103a f   BTree.obj
 0001:00000083       ?insert@cBTree@@QAEPAXPAX@Z 00401083 f   BTree.obj
 0001:00000117       ?deleteNode@cBTree@@AAEXPAU_node@@@Z 00401117 f   BTree.obj
 0001:00000140       ?deleteAll@cBTree@@AAEPAXXZ 00401140 f   BTree.obj
 0001:00000162       ?_balance@cBTree@@AAEPAU_node@@HPAX@Z 00401162 f   BTree.obj
 0001:000001db       ?sort@cBTree@@AAEXPAU_node@@PAX@Z 004011db f   BTree.obj
 0001:0000021d       ?balance@cBTree@@QAEPAXXZ  0040121d f   BTree.obj
 0001:00000271       ??0cBTree_v2@@QAE@IP6AHPBX0@ZP6AXPAU_iobuf@@PAX@Z@Z 00401271 f   BTree.obj
 0001:00000295       ??1cBTree_v2@@QAE@XZ       00401295 f   BTree.obj
 0001:000002bb       ?search@cBTree_v2@@QAEPAXPAX@Z 004012bb f   BTree.obj
 0001:000002ed       ?insert@cBTree_v2@@QAEPAXPAX@Z 004012ed f   BTree.obj
 0001:00000326       ?sort@cBTree_v2@@QAEXXZ    00401326 f   BTree.obj
 0001:00000337       ?push_back@?$vector@PAXV?$allocator@PAX@_STL@@@_STL@@QAEXABQAX@Z 00401337 f i BTree.obj
 0001:00000368       ?_M_insert_overflow@?$vector@PAXV?$allocator@PAX@_STL@@@_STL@@IAEXPAPAXABQAXABU__true_type@2@I_N@Z 00401368 f i BTree.obj
 0001:00000414       ??1?$_Vector_base@PAXV?$allocator@PAX@_STL@@@_STL@@QAE@XZ 00401414 f i BTree.obj
 0001:0000045b       ?_M_clear@?$vector@PAXV?$allocator@PAX@_STL@@@_STL@@IAEXXZ 0040145b f i BTree.obj
 0001:00000485       ?allocate@?$_STLP_alloc_proxy@PAV?$list@U?$pair@V?$basic_string@DV?$char_traits@D@_STL@@V?$allocator@D@2@@_STL@@H@_STL@@V?$allocator@U?$pair@V?$basic_string@DV?$char_traits@D@_STL@@V?$allocator@D@2@@_STL@@H@_STL@@@2@@_STL@@V12@V?$allocator@V?$list@U?$pair@V?$basic_string@DV?$char_traits@D@_STL@@V?$allocator@D@2@@_STL@@H@_STL@@V?$allocator@U?$pair@V?$basic_string@DV?$char_traits@D@_STL@@V?$allocator@D@2@@_STL@@H@_STL@@@2@@_STL@@@2@@_STL@@QAEPAV?$list@U?$pair@V?$basic_string@DV?$char_traits@D@_STL@@V?$allocator@D@2@@_STL@@H@_STL@@V?$allocator@U?$pair@V?$basic_string@DV?$char_traits@D@_STL@@V?$allocator@D@2@@_STL@@H@_STL@@@2@@2@I@Z 00401485 f i BTree.obj
 0001:00000485       ?allocate@?$_STLP_alloc_proxy@PAPAXPAXV?$allocator@PAX@_STL@@@_STL@@QAEPAPAXI@Z 00401485 f i BTree.obj
 0001:000004ac       ?sort@_STL@@YAXPAPAX0UKeyCmp@@@Z 004014ac f i BTree.obj
 0001:000004ef       ?__equal_range@_STL@@YA?AU?$pair@PAPAXPAPAX@1@PAPAX0ABQAXUKeyCmp@@PAH@Z 004014ef f i BTree.obj
 0001:00000591       ?__introsort_loop@_STL@@YAXPAPAX00HUKeyCmp@@@Z 00401591 f i BTree.obj
 0001:00000614       ?__final_insertion_sort@_STL@@YAXPAPAX0UKeyCmp@@@Z 00401614 f i BTree.obj
 0001:0000068b       ?__median@_STL@@YAABQAXABQAX00UKeyCmp@@@Z 0040168b f i BTree.obj
 0001:000006f4       ?__unguarded_partition@_STL@@YAPAPAXPAPAX0PAXUKeyCmp@@@Z 004016f4 f i BTree.obj
 0001:0000073a       ?__lower_bound@_STL@@YAPAPAXPAPAX0ABQAXUKeyCmp@@PAH@Z 0040173a f i BTree.obj
 0001:00000787       ?__upper_bound@_STL@@YAPAPAXPAPAX0ABQAXUKeyCmp@@PAH@Z 00401787 f i BTree.obj
 0001:000007d4       ?__partial_sort@_STL@@YAXPAPAX000UKeyCmp@@@Z 004017d4 f i BTree.obj
 0001:00000839       ?__linear_insert@_STL@@YAXPAPAX0PAXUKeyCmp@@@Z 00401839 f i BTree.obj
 0001:00000882       ?make_heap@_STL@@YAXPAPAX0UKeyCmp@@@Z 00401882 f i BTree.obj
 0001:000008cd       ?sort_heap@_STL@@YAXPAPAX0UKeyCmp@@@Z 004018cd f i BTree.obj
 0001:00000919       ?__unguarded_linear_insert@_STL@@YAXPAPAXPAXUKeyCmp@@@Z 00401919 f i BTree.obj
 0001:00000949       ?__adjust_heap@_STL@@YAXPAPAXHHPAXUKeyCmp@@@Z 00401949 f i BTree.obj
 0001:000009ac       ?__push_heap@_STL@@YAXPAPAXHHPAXUKeyCmp@@@Z 004019ac f i BTree.obj
 0001:000009f9       ??0cDynamicRule@@QAE@_NPAD@Z 004019f9 f   DynamicRule.obj
 0001:00000a8c       ??1cDynamicRule@@QAE@XZ    00401a8c f   DynamicRule.obj
 0001:00000ab3       ?readRule@cDynamicRule@@AAEXPADQAPAVcBTree_v2@@@Z 00401ab3 f   DynamicRule.obj
 0001:00000cd3       ??_Eruntime_error@_STL@@UAEPAXI@Z 00401cd3 f i DynamicRule.obj
 0001:00000cd3       ??_Gruntime_error@_STL@@UAEPAXI@Z 00401cd3 f i DynamicRule.obj
 0001:00000cef       ??0runtime_error@_STL@@QAE@ABV01@@Z 00401cef f i DynamicRule.obj
 0001:00000d17       ??0__Named_exception@_STL@@QAE@ABV01@@Z 00401d17 f i DynamicRule.obj
 0001:00000d3f       ??_E__Named_exception@_STL@@UAEPAXI@Z 00401d3f f i DynamicRule.obj
 0001:00000d3f       ??_G__Named_exception@_STL@@UAEPAXI@Z 00401d3f f i DynamicRule.obj
 0001:00000d5b       ?pnt@cDynamicRule@@SAXPAU_iobuf@@PAX@Z 00401d5b f   DynamicRule.obj
 0001:00000d7e       ?getProb@cDynamicRule@@QAENU_aPhrase@@0000@Z 00401d7e f   DynamicRule.obj
 0001:00000f1b       ?findRule@cDynamicRule@@AAEXQAPAU_aRule@@U_aPhrase@@1111_N@Z 00401f1b f   DynamicRule.obj
 0001:0000154d       ??1?$basic_string@DV?$char_traits@D@_STL@@V?$allocator@D@2@@_STL@@QAE@XZ 0040254d f i DynamicRule.obj
 0001:00001570       ?_M_deallocate_block@?$_String_base@DV?$allocator@D@_STL@@@_STL@@QAEXXZ 00402570 f i DynamicRule.obj
 0001:00001594       ??0?$basic_string@DV?$char_traits@D@_STL@@V?$allocator@D@2@@_STL@@QAE@PBDABV?$allocator@D@1@@Z 00402594 f i DynamicRule.obj
 0001:000015e5       ??1?$_String_base@DV?$allocator@D@_STL@@@_STL@@QAE@XZ 004025e5 f i DynamicRule.obj
 0001:00001608       ?_M_allocate_block@?$_String_base@DV?$allocator@D@_STL@@@_STL@@QAEXI@Z 00402608 f i DynamicRule.obj
 0001:0000169f       ??0KomaWrap@ku_parser@@QAE@PBD_N@Z 0040269f f   KomaWrap.obj
 0001:000018e5       ??0RscPath@kwk_simple_type@@QAE@PBD@Z 004028e5 f i KomaWrap.obj
 0001:0000195d       ?filePath@RscPath@kwk_simple_type@@QAEPBDPBD@Z 0040295d f i KomaWrap.obj
 0001:000019ba       ??1RscPath@kwk_simple_type@@QAE@XZ 004029ba f i KomaWrap.obj
 0001:000019fa       ??1KomaWrap@ku_parser@@QAE@XZ 004029fa f   KomaWrap.obj
 0001:00001a0c       ?tagPos@KomaWrap@ku_parser@@QAEHPBDW4TaggingMethod@@@Z 00402a0c f   KomaWrap.obj
 0001:00001a5e       ?push_back@?$basic_string@DV?$char_traits@D@_STL@@V?$allocator@D@2@@_STL@@QAEXD@Z 00402a5e f i KomaWrap.obj
 0001:00001aa9       ?assign@?$basic_string@DV?$char_traits@D@_STL@@V?$allocator@D@2@@_STL@@QAEAAV12@PBD0@Z 00402aa9 f i KomaWrap.obj
 0001:00001b18       ?erase@?$basic_string@DV?$char_traits@D@_STL@@V?$allocator@D@2@@_STL@@QAEPADPAD0@Z 00402b18 f i KomaWrap.obj
 0001:00001b4b       ??0?$basic_string@DV?$char_traits@D@_STL@@V?$allocator@D@2@@_STL@@QAE@XZ 00402b4b f i KomaWrap.obj
 0001:00001b8f       ?reserve@?$basic_string@DV?$char_traits@D@_STL@@V?$allocator@D@2@@_STL@@QAEXI@Z 00402b8f f i KomaWrap.obj
 0001:00001c1a       ??H_STL@@YA?AV?$basic_string@DV?$char_traits@D@_STL@@V?$allocator@D@2@@0@ABV10@PBD@Z 00402c1a f i KomaWrap.obj
 0001:00001ce4       ?get_allocator@?$basic_string@DV?$char_traits@D@_STL@@V?$allocator@D@2@@_STL@@QBE?AV?$allocator@D@2@XZ 00402ce4 f i KomaWrap.obj
 0001:00001ce4       ?get_allocator@?$_List_base@U?$pair@V?$basic_string@DV?$char_traits@D@_STL@@V?$allocator@D@2@@_STL@@H@_STL@@V?$allocator@U?$pair@V?$basic_string@DV?$char_traits@D@_STL@@V?$allocator@D@2@@_STL@@H@_STL@@@2@@_STL@@QBE?AV?$allocator@U?$pair@V?$basic_string@DV?$char_traits@D@_STL@@V?$allocator@D@2@@_STL@@H@_STL@@@2@XZ 00402ce4 f i KomaWrap.obj
 0001:00001cf3       ??0?$_STLP_alloc_proxy@PADDV?$allocator@D@_STL@@@_STL@@QAE@ABV?$allocator@D@1@PAD@Z 00402cf3 f i KomaWrap.obj
 0001:00001cfe       ??0?$basic_string@DV?$char_traits@D@_STL@@V?$allocator@D@2@@_STL@@QAE@ABV01@@Z 00402cfe f i KomaWrap.obj
 0001:00001d54       ?_M_assign_dispatch@?$basic_string@DV?$char_traits@D@_STL@@V?$allocator@D@2@@_STL@@AAEAAV12@PAD0ABU__false_type@2@@Z 00402d54 f i KomaWrap.obj
 0001:00001da2       ?append@?$basic_string@DV?$char_traits@D@_STL@@V?$allocator@D@2@@_STL@@AAEAAV12@PBD0ABUforward_iterator_tag@2@@Z 00402da2 f i KomaWrap.obj
 0001:00001ef7       ?__copy_trivial@_STL@@YAPAXPBX0PAX@Z 00402ef7 f i KomaWrap.obj
 0001:00001f1f       ?deallocate@?$__node_alloc@$00$0A@@_STL@@SAXPAXI@Z 00402f1f f i KomaWrap.obj
 0001:00001f44       ?_M_range_initialize@?$basic_string@DV?$char_traits@D@_STL@@V?$allocator@D@2@@_STL@@AAEXPBD0ABUforward_iterator_tag@2@@Z 00402f44 f i KomaWrap.obj
 0001:00001f44       ?_M_range_initialize@?$basic_string@DV?$char_traits@D@_STL@@V?$allocator@D@2@@_STL@@AAEXPAD0ABUforward_iterator_tag@2@@Z 00402f44 f i KomaWrap.obj
 0001:00001f7d       ?append@?$basic_string@DV?$char_traits@D@_STL@@V?$allocator@D@2@@_STL@@AAEAAV12@PAD0ABUforward_iterator_tag@2@@Z 00402f7d f i KomaWrap.obj
 0001:000020c4       ??0Kup@ku_parser@@QAE@PBD_N1@Z 004030c4 f   Kup.obj
 0001:0000232b       ??0KupError@ku_parser@@QAE@PBD@Z 0040332b f i Kup.obj
 0001:00002389       ??_GKupError@ku_parser@@UAEPAXI@Z 00403389 f i Kup.obj
 0001:00002389       ??_EKupError@ku_parser@@UAEPAXI@Z 00403389 f i Kup.obj
 0001:000023a5       ??1KupError@ku_parser@@UAE@XZ 004033a5 f i Kup.obj
 0001:000023aa       ??0KupError@ku_parser@@QAE@ABV01@@Z 004033aa f i Kup.obj
 0001:000023d2       ??1Kup@ku_parser@@QAE@XZ   004033d2 f   Kup.obj
 0001:0000245e       ?DoKup@Kup@ku_parser@@QAE_NPBDAAUPhrases@@W4TaggingMethod@@@Z 0040345e f   Kup.obj
 0001:00002578       ?convertPosTag@ku_parser@@YAPBDPBDPAVStrMapTable@1@@Z 00403578 f   Kup.obj
 0001:00002707       ??0StrMapTable@ku_parser@@QAE@PBD0@Z 00403707 f   Kup.obj
 0001:00002918       ??1?$pair@V?$basic_string@DV?$char_traits@D@_STL@@V?$allocator@D@2@@_STL@@V12@@_STL@@QAE@XZ 00403918 f i Kup.obj
 0001:00002958       ??_D?$basic_ifstream@DV?$char_traits@D@_STL@@@_STL@@QAEXXZ 00403958 f i Kup.obj
 0001:0000296f       ??1StringPair@ku_parser@@QAE@XZ 0040396f f i Kup.obj
 0001:000029af       ?getMappedStr@StrMapTable@ku_parser@@QAEPBDPBD@Z 004039af f   Kup.obj
 0001:000029ee       ??RHtmlTreeOut_TD@KupTrOut@ku_parser@@QBE_NABU?$pair@V?$basic_string@DV?$char_traits@D@_STL@@V?$allocator@D@2@@_STL@@H@_STL@@PAU_iobuf@@@Z 004039ee f   Kup.obj
 0001:00002a3a       ??RHtmlTreeOut@KupTrOut@ku_parser@@QBE_NABV?$list@U?$pair@V?$basic_string@DV?$char_traits@D@_STL@@V?$allocator@D@2@@_STL@@H@_STL@@V?$allocator@U?$pair@V?$basic_string@DV?$char_traits@D@_STL@@V?$allocator@D@2@@_STL@@H@_STL@@@2@@_STL@@PAU_iobuf@@@Z 00403a3a f   Kup.obj
 0001:00002a95       ?bracket@KupTrOut@ku_parser@@QAEXPAU_iobuf@@PAUPhrases@@@Z 00403a95 f   Kup.obj
 0001:00002aac       ?htmlTreeGraph@KupTrOut@ku_parser@@QAEXPAU_iobuf@@PAUPhrases@@@Z 00403aac f   Kup.obj
 0001:00002b5a       ?tree_recurse_real@KupTrOut@ku_parser@@AAEHAAV?$vector@V?$list@U?$pair@V?$basic_string@DV?$char_traits@D@_STL@@V?$allocator@D@2@@_STL@@H@_STL@@V?$allocator@U?$pair@V?$basic_string@DV?$char_traits@D@_STL@@V?$allocator@D@2@@_STL@@H@_STL@@@2@@_STL@@V?$allocator@V?$list@U?$pair@V?$basic_string@DV?$char_traits@D@_STL@@V?$allocator@D@2@@_STL@@H@_STL@@V?$allocator@U?$pair@V?$basic_string@DV?$char_traits@D@_STL@@V?$allocator@D@2@@_STL@@H@_STL@@@2@@_STL@@@2@@_STL@@HPAU_aPhrase@@PAU_Words@@@Z 00403b5a f   Kup.obj
 0001:00002cb7       ??1?$pair@V?$basic_string@DV?$char_traits@D@_STL@@V?$allocator@D@2@@_STL@@H@_STL@@QAE@XZ 00403cb7 f i Kup.obj
 0001:00002cda       ?tree_recurse@KupTrOut@ku_parser@@AAEXAAV?$vector@V?$list@U?$pair@V?$basic_string@DV?$char_traits@D@_STL@@V?$allocator@D@2@@_STL@@H@_STL@@V?$allocator@U?$pair@V?$basic_string@DV?$char_traits@D@_STL@@V?$allocator@D@2@@_STL@@H@_STL@@@2@@_STL@@V?$allocator@V?$list@U?$pair@V?$basic_string@DV?$char_traits@D@_STL@@V?$allocator@D@2@@_STL@@H@_STL@@V?$allocator@U?$pair@V?$basic_string@DV?$char_traits@D@_STL@@V?$allocator@D@2@@_STL@@H@_STL@@@2@@_STL@@@2@@_STL@@PAUPhrases@@PAU_Words@@@Z 00403cda f   Kup.obj
 0001:00002d2d       ?tree_nonRecurse@KupTrOut@ku_parser@@AAEXAAV?$vector@V?$list@U?$pair@V?$basic_string@DV?$char_traits@D@_STL@@V?$allocator@D@2@@_STL@@H@_STL@@V?$allocator@U?$pair@V?$basic_string@DV?$char_traits@D@_STL@@V?$allocator@D@2@@_STL@@H@_STL@@@2@@_STL@@V?$allocator@V?$list@U?$pair@V?$basic_string@DV?$char_traits@D@_STL@@V?$allocator@D@2@@_STL@@H@_STL@@V?$allocator@U?$pair@V?$basic_string@DV?$char_traits@D@_STL@@V?$allocator@D@2@@_STL@@H@_STL@@@2@@_STL@@@2@@_STL@@PAUPhrases@@PAU_Words@@@Z 00403d2d f   Kup.obj
 0001:00002d30       ?htmlPrintOneNode@KupTrOut@ku_parser@@AAE?AV?$basic_string@DV?$char_traits@D@_STL@@V?$allocator@D@2@@_STL@@PAU_aPhrase@@PAU_Words@@@Z 00403d30 f   Kup.obj
 0001:00002ee1       ?erase@?$basic_string@DV?$char_traits@D@_STL@@V?$allocator@D@2@@_STL@@QAEAAV12@II@Z 00403ee1 f i Kup.obj
 0001:00002f2e       ?substr@?$basic_string@DV?$char_traits@D@_STL@@V?$allocator@D@2@@_STL@@QBE?AV12@II@Z 00403f2e f i Kup.obj
 0001:00002fad       ??1?$basic_ios@DV?$char_traits@D@_STL@@@_STL@@UAE@XZ 00403fad f i Kup.obj
 0001:00002fb8       ??0?$pair@V?$basic_string@DV?$char_traits@D@_STL@@V?$allocator@D@2@@_STL@@V12@@_STL@@QAE@ABV?$basic_string@DV?$char_traits@D@_STL@@V?$allocator@D@2@@1@0@Z 00403fb8 f i Kup.obj
 0001:00002ff1       ??1?$vector@VStringPair@ku_parser@@V?$allocator@VStringPair@ku_parser@@@_STL@@@_STL@@QAE@XZ 00403ff1 f i Kup.obj
 0001:00003037       ?push_back@?$vector@VStringPair@ku_parser@@V?$allocator@VStringPair@ku_parser@@@_STL@@@_STL@@QAEXABVStringPair@ku_parser@@@Z 00404037 f i Kup.obj
 0001:0000306e       ??0?$basic_ifstream@DV?$char_traits@D@_STL@@@_STL@@QAE@PBDH@Z 0040406e f i Kup.obj
 0001:00003118       ??1?$basic_istream@DV?$char_traits@D@_STL@@@_STL@@UAE@XZ 00404118 f i Kup.obj
 0001:00003127       ??1?$basic_ifstream@DV?$char_traits@D@_STL@@@_STL@@UAE@XZ 00404127 f i Kup.obj
 0001:00003176       ?push_back@?$list@U?$pair@V?$basic_string@DV?$char_traits@D@_STL@@V?$allocator@D@2@@_STL@@H@_STL@@V?$allocator@U?$pair@V?$basic_string@DV?$char_traits@D@_STL@@V?$allocator@D@2@@_STL@@H@_STL@@@2@@_STL@@QAEXABU?$pair@V?$basic_string@DV?$char_traits@D@_STL@@V?$allocator@D@2@@_STL@@H@2@@Z 00404176 f i Kup.obj
 0001:00003196       ?rbegin@?$vector@V?$list@U?$pair@V?$basic_string@DV?$char_traits@D@_STL@@V?$allocator@D@2@@_STL@@H@_STL@@V?$allocator@U?$pair@V?$basic_string@DV?$char_traits@D@_STL@@V?$allocator@D@2@@_STL@@H@_STL@@@2@@_STL@@V?$allocator@V?$list@U?$pair@V?$basic_string@DV?$char_traits@D@_STL@@V?$allocator@D@2@@_STL@@H@_STL@@V?$allocator@U?$pair@V?$basic_string@DV?$char_traits@D@_STL@@V?$allocator@D@2@@_STL@@H@_STL@@@2@@_STL@@@2@@_STL@@QAE?AV?$reverse_iterator@PAV?$list@U?$pair@V?$basic_string@DV?$char_traits@D@_STL@@V?$allocator@D@2@@_STL@@H@_STL@@V?$allocator@U?$pair@V?$basic_string@DV?$char_traits@D@_STL@@V?$allocator@D@2@@_STL@@H@_STL@@@2@@_STL@@V12@AAV12@PAV12@H@2@XZ 00404196 f i Kup.obj
 0001:000031a2       ?rend@?$vector@V?$list@U?$pair@V?$basic_string@DV?$char_traits@D@_STL@@V?$allocator@D@2@@_STL@@H@_STL@@V?$allocator@U?$pair@V?$basic_string@DV?$char_traits@D@_STL@@V?$allocator@D@2@@_STL@@H@_STL@@@2@@_STL@@V?$allocator@V?$list@U?$pair@V?$basic_string@DV?$char_traits@D@_STL@@V?$allocator@D@2@@_STL@@H@_STL@@V?$allocator@U?$pair@V?$basic_string@DV?$char_traits@D@_STL@@V?$allocator@D@2@@_STL@@H@_STL@@@2@@_STL@@@2@@_STL@@QAE?AV?$reverse_iterator@PAV?$list@U?$pair@V?$basic_string@DV?$char_traits@D@_STL@@V?$allocator@D@2@@_STL@@H@_STL@@V?$allocator@U?$pair@V?$basic_string@DV?$char_traits@D@_STL@@V?$allocator@D@2@@_STL@@H@_STL@@@2@@_STL@@V12@AAV12@PAV12@H@2@XZ 004041a2 f i Kup.obj
 0001:000031a2       ?end@?$list@U?$pair@V?$basic_string@DV?$char_traits@D@_STL@@V?$allocator@D@2@@_STL@@H@_STL@@V?$allocator@U?$pair@V?$basic_string@DV?$char_traits@D@_STL@@V?$allocator@D@2@@_STL@@H@_STL@@@2@@_STL@@QAE?AU?$_List_iterator@U?$pair@V?$basic_string@DV?$char_traits@D@_STL@@V?$allocator@D@2@@_STL@@H@_STL@@U?$_Nonconst_traits@U?$pair@V?$basic_string@DV?$char_traits@D@_STL@@V?$allocator@D@2@@_STL@@H@_STL@@@2@@2@XZ 004041a2 f i Kup.obj
 0001:000031ad       ??1?$vector@V?$list@U?$pair@V?$basic_string@DV?$char_traits@D@_STL@@V?$allocator@D@2@@_STL@@H@_STL@@V?$allocator@U?$pair@V?$basic_string@DV?$char_traits@D@_STL@@V?$allocator@D@2@@_STL@@H@_STL@@@2@@_STL@@V?$allocator@V?$list@U?$pair@V?$basic_string@DV?$char_traits@D@_STL@@V?$allocator@D@2@@_STL@@H@_STL@@V?$allocator@U?$pair@V?$basic_string@DV?$char_traits@D@_STL@@V?$allocator@D@2@@_STL@@H@_STL@@@2@@_STL@@@2@@_STL@@QAE@XZ 004041ad f i Kup.obj
 0001:000031f3       ?resize@?$vector@V?$list@U?$pair@V?$basic_string@DV?$char_traits@D@_STL@@V?$allocator@D@2@@_STL@@H@_STL@@V?$allocator@U?$pair@V?$basic_string@DV?$char_traits@D@_STL@@V?$allocator@D@2@@_STL@@H@_STL@@@2@@_STL@@V?$allocator@V?$list@U?$pair@V?$basic_string@DV?$char_traits@D@_STL@@V?$allocator@D@2@@_STL@@H@_STL@@V?$allocator@U?$pair@V?$basic_string@DV?$char_traits@D@_STL@@V?$allocator@D@2@@_STL@@H@_STL@@@2@@_STL@@@2@@_STL@@QAEXI@Z 004041f3 f i Kup.obj
 0001:0000324d       ??_E?$basic_ios@DV?$char_traits@D@_STL@@@_STL@@UAEPAXI@Z 0040424d f i Kup.obj
 0001:0000324d       ??_G?$basic_ios@DV?$char_traits@D@_STL@@@_STL@@UAEPAXI@Z 0040424d f i Kup.obj
 0001:00003269       ??_G?$basic_istream@DV?$char_traits@D@_STL@@@_STL@@UAEPAXI@Z 00404269 f i Kup.obj
 0001:00003269       ??_E?$basic_istream@DV?$char_traits@D@_STL@@@_STL@@UAEPAXI@Z 00404269 f i Kup.obj
 0001:00003288       ??_E?$basic_ifstream@DV?$char_traits@D@_STL@@@_STL@@UAEPAXI@Z 00404288 f i Kup.obj
 0001:00003288       ??_G?$basic_ifstream@DV?$char_traits@D@_STL@@@_STL@@UAEPAXI@Z 00404288 f i Kup.obj
 0001:000032b9       ??_D?$basic_istream@DV?$char_traits@D@_STL@@@_STL@@QAEXXZ 004042b9 f i Kup.obj
 0001:000032ce       ?_M_insert_overflow@?$vector@VStringPair@ku_parser@@V?$allocator@VStringPair@ku_parser@@@_STL@@@_STL@@IAEXPAVStringPair@ku_parser@@ABV34@ABU__false_type@2@I_N@Z 004042ce f i Kup.obj
 0001:000033ee       ??0?$_Vector_base@VStringPair@ku_parser@@V?$allocator@VStringPair@ku_parser@@@_STL@@@_STL@@QAE@ABV?$allocator@VStringPair@ku_parser@@@1@@Z 004043ee f i Kup.obj
 0001:000033fd       ??1?$_Vector_base@VStringPair@ku_parser@@V?$allocator@VStringPair@ku_parser@@@_STL@@@_STL@@QAE@XZ 004043fd f i Kup.obj
 0001:0000344c       ??0?$basic_istream@DV?$char_traits@D@_STL@@@_STL@@QAE@PAV?$basic_streambuf@DV?$char_traits@D@_STL@@@1@@Z 0040444c f i Kup.obj
 0001:000034b1       ?insert@?$list@U?$pair@V?$basic_string@DV?$char_traits@D@_STL@@V?$allocator@D@2@@_STL@@H@_STL@@V?$allocator@U?$pair@V?$basic_string@DV?$char_traits@D@_STL@@V?$allocator@D@2@@_STL@@H@_STL@@@2@@_STL@@QAE?AU?$_List_iterator@U?$pair@V?$basic_string@DV?$char_traits@D@_STL@@V?$allocator@D@2@@_STL@@H@_STL@@U?$_Nonconst_traits@U?$pair@V?$basic_string@DV?$char_traits@D@_STL@@V?$allocator@D@2@@_STL@@H@_STL@@@2@@2@U32@ABU?$pair@V?$basic_string@DV?$char_traits@D@_STL@@V?$allocator@D@2@@_STL@@H@2@@Z 004044b1 f i Kup.obj
 0001:000034d6       ??0?$allocator@U?$pair@V?$basic_string@DV?$char_traits@D@_STL@@V?$allocator@D@2@@_STL@@H@_STL@@@_STL@@QAE@XZ 004044d6 f i Kup.obj
 0001:000034d9       ?resize@?$vector@V?$list@U?$pair@V?$basic_string@DV?$char_traits@D@_STL@@V?$allocator@D@2@@_STL@@H@_STL@@V?$allocator@U?$pair@V?$basic_string@DV?$char_traits@D@_STL@@V?$allocator@D@2@@_STL@@H@_STL@@@2@@_STL@@V?$allocator@V?$list@U?$pair@V?$basic_string@DV?$char_traits@D@_STL@@V?$allocator@D@2@@_STL@@H@_STL@@V?$allocator@U?$pair@V?$basic_string@DV?$char_traits@D@_STL@@V?$allocator@D@2@@_STL@@H@_STL@@@2@@_STL@@@2@@_STL@@QAEXIV?$list@U?$pair@V?$basic_string@DV?$char_traits@D@_STL@@V?$allocator@D@2@@_STL@@H@_STL@@V?$allocator@U?$pair@V?$basic_string@DV?$char_traits@D@_STL@@V?$allocator@D@2@@_STL@@H@_STL@@@2@@2@@Z 004044d9 f i Kup.obj
 0001:00003531       ??1?$list@U?$pair@V?$basic_string@DV?$char_traits@D@_STL@@V?$allocator@D@2@@_STL@@H@_STL@@V?$allocator@U?$pair@V?$basic_string@DV?$char_traits@D@_STL@@V?$allocator@D@2@@_STL@@H@_STL@@@2@@_STL@@QAE@XZ 00404531 f i Kup.obj
 0001:00003536       ??1?$_Vector_base@V?$list@U?$pair@V?$basic_string@DV?$char_traits@D@_STL@@V?$allocator@D@2@@_STL@@H@_STL@@V?$allocator@U?$pair@V?$basic_string@DV?$char_traits@D@_STL@@V?$allocator@D@2@@_STL@@H@_STL@@@2@@_STL@@V?$allocator@V?$list@U?$pair@V?$basic_string@DV?$char_traits@D@_STL@@V?$allocator@D@2@@_STL@@H@_STL@@V?$allocator@U?$pair@V?$basic_string@DV?$char_traits@D@_STL@@V?$allocator@D@2@@_STL@@H@_STL@@@2@@_STL@@@2@@_STL@@QAE@XZ 00404536 f i Kup.obj
 0001:0000357d       ??1?$_STLP_alloc_proxy@PAV?$list@U?$pair@V?$basic_string@DV?$char_traits@D@_STL@@V?$allocator@D@2@@_STL@@H@_STL@@V?$allocator@U?$pair@V?$basic_string@DV?$char_traits@D@_STL@@V?$allocator@D@2@@_STL@@H@_STL@@@2@@_STL@@V12@V?$allocator@V?$list@U?$pair@V?$basic_string@DV?$char_traits@D@_STL@@V?$allocator@D@2@@_STL@@H@_STL@@V?$allocator@U?$pair@V?$basic_string@DV?$char_traits@D@_STL@@V?$allocator@D@2@@_STL@@H@_STL@@@2@@_STL@@@2@@_STL@@QAE@XZ 0040457d f i Kup.obj
 0001:0000357d       ??1?$_STLP_alloc_proxy@PAVStringPair@ku_parser@@V12@V?$allocator@VStringPair@ku_parser@@@_STL@@@_STL@@QAE@XZ 0040457d f i Kup.obj
 0001:0000357d       ??1?$_STLP_alloc_proxy@PAU?$_List_node@U?$pair@V?$basic_string@DV?$char_traits@D@_STL@@V?$allocator@D@2@@_STL@@H@_STL@@@_STL@@U12@V?$allocator@U?$pair@V?$basic_string@DV?$char_traits@D@_STL@@V?$allocator@D@2@@_STL@@H@_STL@@@2@@_STL@@QAE@XZ 0040457d f i Kup.obj
 0001:0000357d       ??1?$allocator@VStringPair@ku_parser@@@_STL@@QAE@XZ 0040457d f i Kup.obj
 0001:0000357d       ??1sentry@?$basic_istream@DV?$char_traits@D@_STL@@@_STL@@QAE@XZ 0040457d f i Kup.obj
 0001:0000357d       ??1?$_STLP_alloc_proxy@PADDV?$allocator@D@_STL@@@_STL@@QAE@XZ 0040457d f i Kup.obj
 0001:0000357d       ??1?$allocator@D@_STL@@QAE@XZ 0040457d f i Kup.obj
 0001:0000357d       ??3@YAXPAX0@Z              0040457d f i Kup.obj
 0001:0000357d       ??1?$allocator@U?$pair@V?$basic_string@DV?$char_traits@D@_STL@@V?$allocator@D@2@@_STL@@H@_STL@@@_STL@@QAE@XZ 0040457d f i Kup.obj
 0001:0000357d       ??1?$_STLP_alloc_proxy@PAPAXPAXV?$allocator@PAX@_STL@@@_STL@@QAE@XZ 0040457d f i Kup.obj
 0001:0000357e       ?clear@?$basic_ios@DV?$char_traits@D@_STL@@@_STL@@QAEXH@Z 0040457e f i Kup.obj
 0001:0000359a       ?_M_clear@?$vector@VStringPair@ku_parser@@V?$allocator@VStringPair@ku_parser@@@_STL@@@_STL@@IAEXXZ 0040459a f i Kup.obj
 0001:000035e7       ?allocate@?$_STLP_alloc_proxy@PAU?$_List_node@U?$pair@V?$basic_string@DV?$char_traits@D@_STL@@V?$allocator@D@2@@_STL@@H@_STL@@@_STL@@U12@V?$allocator@U?$pair@V?$basic_string@DV?$char_traits@D@_STL@@V?$allocator@D@2@@_STL@@H@_STL@@@2@@_STL@@QAEPAU?$_List_node@U?$pair@V?$basic_string@DV?$char_traits@D@_STL@@V?$allocator@D@2@@_STL@@H@_STL@@@2@I@Z 004045e7 f i Kup.obj
 0001:000035e7       ?allocate@?$_STLP_alloc_proxy@PAVStringPair@ku_parser@@V12@V?$allocator@VStringPair@ku_parser@@@_STL@@@_STL@@QAEPAVStringPair@ku_parser@@I@Z 004045e7 f i Kup.obj
 0001:00003611       ?_M_create_node@?$list@U?$pair@V?$basic_string@DV?$char_traits@D@_STL@@V?$allocator@D@2@@_STL@@H@_STL@@V?$allocator@U?$pair@V?$basic_string@DV?$char_traits@D@_STL@@V?$allocator@D@2@@_STL@@H@_STL@@@2@@_STL@@IAEPAU?$_List_node@U?$pair@V?$basic_string@DV?$char_traits@D@_STL@@V?$allocator@D@2@@_STL@@H@_STL@@@2@ABU?$pair@V?$basic_string@DV?$char_traits@D@_STL@@V?$allocator@D@2@@_STL@@H@2@@Z 00404611 f i Kup.obj
 0001:00003684       ??1?$_List_base@U?$pair@V?$basic_string@DV?$char_traits@D@_STL@@V?$allocator@D@2@@_STL@@H@_STL@@V?$allocator@U?$pair@V?$basic_string@DV?$char_traits@D@_STL@@V?$allocator@D@2@@_STL@@H@_STL@@@2@@_STL@@QAE@XZ 00404684 f i Kup.obj
 0001:000036bb       ?erase@?$vector@V?$list@U?$pair@V?$basic_string@DV?$char_traits@D@_STL@@V?$allocator@D@2@@_STL@@H@_STL@@V?$allocator@U?$pair@V?$basic_string@DV?$char_traits@D@_STL@@V?$allocator@D@2@@_STL@@H@_STL@@@2@@_STL@@V?$allocator@V?$list@U?$pair@V?$basic_string@DV?$char_traits@D@_STL@@V?$allocator@D@2@@_STL@@H@_STL@@V?$allocator@U?$pair@V?$basic_string@DV?$char_traits@D@_STL@@V?$allocator@D@2@@_STL@@H@_STL@@@2@@_STL@@@2@@_STL@@QAEPAV?$list@U?$pair@V?$basic_string@DV?$char_traits@D@_STL@@V?$allocator@D@2@@_STL@@H@_STL@@V?$allocator@U?$pair@V?$basic_string@DV?$char_traits@D@_STL@@V?$allocator@D@2@@_STL@@H@_STL@@@2@@2@PAV32@0@Z 004046bb f i Kup.obj
 0001:00003715       ?deallocate@?$_STLP_alloc_proxy@PADDV?$allocator@D@_STL@@@_STL@@QAEXPADI@Z 00404715 f i Kup.obj
 0001:00003742       ?find@?$basic_string@DV?$char_traits@D@_STL@@V?$allocator@D@2@@_STL@@QBEIPBDII@Z 00404742 f i Kup.obj
 0001:00003790       ?find_first_of@?$basic_string@DV?$char_traits@D@_STL@@V?$allocator@D@2@@_STL@@QBEIPBDII@Z 00404790 f i Kup.obj
 0001:000037e5       ??0?$basic_ios@DV?$char_traits@D@_STL@@@_STL@@IAE@XZ 004047e5 f i Kup.obj
 0001:00003802       ?init@?$basic_ios@DV?$char_traits@D@_STL@@@_STL@@IAEXPAV?$basic_streambuf@DV?$char_traits@D@_STL@@@2@@Z 00404802 f i Kup.obj
 0001:00003881       ?_M_put_nowiden@?$basic_ostream@DV?$char_traits@D@_STL@@@_STL@@QAEXPBD@Z 00404881 f i Kup.obj
 0001:000039e3       ??0?$basic_filebuf@DV?$char_traits@D@_STL@@@_STL@@QAE@XZ 004049e3 f i Kup.obj
 0001:00003aa6       ??0?$basic_streambuf@DV?$char_traits@D@_STL@@@_STL@@IAE@XZ 00404aa6 f i Kup.obj
 0001:00003ae2       ??_E?$basic_streambuf@DV?$char_traits@D@_STL@@@_STL@@UAEPAXI@Z 00404ae2 f i Kup.obj
 0001:00003ae2       ??_G?$basic_streambuf@DV?$char_traits@D@_STL@@@_STL@@UAEPAXI@Z 00404ae2 f i Kup.obj
 0001:00003afe       ??1?$basic_filebuf@DV?$char_traits@D@_STL@@@_STL@@UAE@XZ 00404afe f i Kup.obj
 0001:00003b3d       ?showmanyc@?$basic_filebuf@DV?$char_traits@D@_STL@@@_STL@@MAEHXZ 00404b3d f i Kup.obj
 0001:00003b94       ?underflow@?$basic_filebuf@DV?$char_traits@D@_STL@@@_STL@@MAEHXZ 00404b94 f i Kup.obj
 0001:00003b9c       ?pbackfail@?$basic_filebuf@DV?$char_traits@D@_STL@@@_STL@@MAEHH@Z 00404b9c f i Kup.obj
 0001:00003c60       ?overflow@?$basic_filebuf@DV?$char_traits@D@_STL@@@_STL@@MAEHH@Z 00404c60 f i Kup.obj
 0001:00003d4f       ?setbuf@?$basic_filebuf@DV?$char_traits@D@_STL@@@_STL@@MAEPAV?$basic_streambuf@DV?$char_traits@D@_STL@@@2@PADH@Z 00404d4f f i Kup.obj
 0001:00003d93       ?seekoff@?$basic_filebuf@DV?$char_traits@D@_STL@@@_STL@@MAE?AV?$fpos@H@2@JHH@Z 00404d93 f i Kup.obj
 0001:00004043       ?seekpos@?$basic_filebuf@DV?$char_traits@D@_STL@@@_STL@@MAE?AV?$fpos@H@2@V32@H@Z 00405043 f i Kup.obj
 0001:0000409d       ?sync@?$basic_filebuf@DV?$char_traits@D@_STL@@@_STL@@MAEHXZ 0040509d f i Kup.obj
 0001:000040b9       ?imbue@?$basic_filebuf@DV?$char_traits@D@_STL@@@_STL@@MAEXABVlocale@2@@Z 004050b9 f i Kup.obj
 0001:000040d6       ?clear@?$_List_base@U?$pair@V?$basic_string@DV?$char_traits@D@_STL@@V?$allocator@D@2@@_STL@@H@_STL@@V?$allocator@U?$pair@V?$basic_string@DV?$char_traits@D@_STL@@V?$allocator@D@2@@_STL@@H@_STL@@@2@@_STL@@QAEXXZ 004050d6 f i Kup.obj
 0001:0000410e       ?_M_fill_insert@?$vector@V?$list@U?$pair@V?$basic_string@DV?$char_traits@D@_STL@@V?$allocator@D@2@@_STL@@H@_STL@@V?$allocator@U?$pair@V?$basic_string@DV?$char_traits@D@_STL@@V?$allocator@D@2@@_STL@@H@_STL@@@2@@_STL@@V?$allocator@V?$list@U?$pair@V?$basic_string@DV?$char_traits@D@_STL@@V?$allocator@D@2@@_STL@@H@_STL@@V?$allocator@U?$pair@V?$basic_string@DV?$char_traits@D@_STL@@V?$allocator@D@2@@_STL@@H@_STL@@@2@@_STL@@@2@@_STL@@QAEXPAV?$list@U?$pair@V?$basic_string@DV?$char_traits@D@_STL@@V?$allocator@D@2@@_STL@@H@_STL@@V?$allocator@U?$pair@V?$basic_string@DV?$char_traits@D@_STL@@V?$allocator@D@2@@_STL@@H@_STL@@@2@@2@IABV32@@Z 0040510e f i Kup.obj
 0001:00004248       ?for_each@_STL@@YA?AV?$binder2nd@UHtmlTreeOut@KupTrOut@ku_parser@@@1@V?$reverse_iterator@PAV?$list@U?$pair@V?$basic_string@DV?$char_traits@D@_STL@@V?$allocator@D@2@@_STL@@H@_STL@@V?$allocator@U?$pair@V?$basic_string@DV?$char_traits@D@_STL@@V?$allocator@D@2@@_STL@@H@_STL@@@2@@_STL@@V12@AAV12@PAV12@H@1@0V21@@Z 00405248 f i Kup.obj
 0001:00004281       ?_Construct@_STL@@YAXPAVStringPair@ku_parser@@ABV23@@Z 00405281 f i Kup.obj
 0001:000042c5       ?__uninitialized_copy@_STL@@YAPAVStringPair@ku_parser@@PAV23@00ABU__false_type@1@@Z 004052c5 f i Kup.obj
 0001:0000432c       ?__uninitialized_fill_n@_STL@@YAPAVStringPair@ku_parser@@PAV23@IABV23@ABU__false_type@1@@Z 0040532c f i Kup.obj
 0001:00004393       ??_E?$basic_filebuf@DV?$char_traits@D@_STL@@@_STL@@UAEPAXI@Z 00405393 f i Kup.obj
 0001:00004393       ??_G?$basic_filebuf@DV?$char_traits@D@_STL@@@_STL@@UAEPAXI@Z 00405393 f i Kup.obj
 0001:000043af       ??1sentry@?$basic_ostream@DV?$char_traits@D@_STL@@@_STL@@QAE@XZ 004053af f i Kup.obj
 0001:000043c3       ?_M_seek_return@?$basic_filebuf@DV?$char_traits@D@_STL@@@_STL@@AAE?AV?$fpos@H@2@JH@Z 004053c3 f i Kup.obj
 0001:00004412       ??0?$list@U?$pair@V?$basic_string@DV?$char_traits@D@_STL@@V?$allocator@D@2@@_STL@@H@_STL@@V?$allocator@U?$pair@V?$basic_string@DV?$char_traits@D@_STL@@V?$allocator@D@2@@_STL@@H@_STL@@@2@@_STL@@QAE@ABV01@@Z 00405412 f i Kup.obj
 0001:0000447f       ?_M_insert_overflow@?$vector@V?$list@U?$pair@V?$basic_string@DV?$char_traits@D@_STL@@V?$allocator@D@2@@_STL@@H@_STL@@V?$allocator@U?$pair@V?$basic_string@DV?$char_traits@D@_STL@@V?$allocator@D@2@@_STL@@H@_STL@@@2@@_STL@@V?$allocator@V?$list@U?$pair@V?$basic_string@DV?$char_traits@D@_STL@@V?$allocator@D@2@@_STL@@H@_STL@@V?$allocator@U?$pair@V?$basic_string@DV?$char_traits@D@_STL@@V?$allocator@D@2@@_STL@@H@_STL@@@2@@_STL@@@2@@_STL@@IAEXPAV?$list@U?$pair@V?$basic_string@DV?$char_traits@D@_STL@@V?$allocator@D@2@@_STL@@H@_STL@@V?$allocator@U?$pair@V?$basic_string@DV?$char_traits@D@_STL@@V?$allocator@D@2@@_STL@@H@_STL@@@2@@2@ABV32@ABU__false_type@2@I_N@Z 0040547f f i Kup.obj
 0001:000045a5       ??1?$_Filebuf_Tmp_Buf@D@_STL@@QAE@XZ 004055a5 f i Kup.obj
 0001:000045ae       ?flush@?$basic_ostream@DV?$char_traits@D@_STL@@@_STL@@QAEAAV12@XZ 004055ae f i Kup.obj
 0001:000045df       ?begin@?$list@U?$pair@V?$basic_string@DV?$char_traits@D@_STL@@V?$allocator@D@2@@_STL@@H@_STL@@V?$allocator@U?$pair@V?$basic_string@DV?$char_traits@D@_STL@@V?$allocator@D@2@@_STL@@H@_STL@@@2@@_STL@@QAE?AU?$_List_iterator@U?$pair@V?$basic_string@DV?$char_traits@D@_STL@@V?$allocator@D@2@@_STL@@H@_STL@@U?$_Nonconst_traits@U?$pair@V?$basic_string@DV?$char_traits@D@_STL@@V?$allocator@D@2@@_STL@@H@_STL@@@2@@2@XZ 004055df f i Kup.obj
 0001:000045ec       ?_M_clear@?$vector@V?$list@U?$pair@V?$basic_string@DV?$char_traits@D@_STL@@V?$allocator@D@2@@_STL@@H@_STL@@V?$allocator@U?$pair@V?$basic_string@DV?$char_traits@D@_STL@@V?$allocator@D@2@@_STL@@H@_STL@@@2@@_STL@@V?$allocator@V?$list@U?$pair@V?$basic_string@DV?$char_traits@D@_STL@@V?$allocator@D@2@@_STL@@H@_STL@@V?$allocator@U?$pair@V?$basic_string@DV?$char_traits@D@_STL@@V?$allocator@D@2@@_STL@@H@_STL@@@2@@_STL@@@2@@_STL@@IAEXXZ 004055ec f i Kup.obj
 0001:00004633       ?search@_STL@@YAPBDPBD000U?$_Eq_traits@V?$char_traits@D@_STL@@@1@@Z 00405633 f i Kup.obj
 0001:000046bb       ?imbue@?$basic_ios@DV?$char_traits@D@_STL@@@_STL@@QAE?AVlocale@2@ABV32@@Z 004056bb f i Kup.obj
 0001:0000477f       ?grouping@?$numpunct@D@_STL@@QBE?AV?$basic_string@DV?$char_traits@D@_STL@@V?$allocator@D@2@@2@XZ 0040577f f i Kup.obj
 0001:00004796       ?close@?$basic_filebuf@DV?$char_traits@D@_STL@@@_STL@@QAEPAV12@XZ 00405796 f i Kup.obj
 0001:0000484f       ?_M_exit_input_mode@?$basic_filebuf@DV?$char_traits@D@_STL@@@_STL@@AAEXXZ 0040584f f i Kup.obj
 0001:00004878       ?_M_switch_to_output_mode@?$basic_filebuf@DV?$char_traits@D@_STL@@@_STL@@AAE_NXZ 00405878 f i Kup.obj
 0001:000048e5       ?_M_output_error@?$basic_filebuf@DV?$char_traits@D@_STL@@@_STL@@AAEHXZ 004058e5 f i Kup.obj
 0001:00004900       ?_M_allocate_buffers@?$basic_filebuf@DV?$char_traits@D@_STL@@@_STL@@AAE_NPADH@Z 00405900 f i Kup.obj
 0001:000049a2       ?_M_deallocate_buffers@?$basic_filebuf@DV?$char_traits@D@_STL@@@_STL@@AAEXXZ 004059a2 f i Kup.obj
 0001:000049ce       ?_M_seek_init@?$basic_filebuf@DV?$char_traits@D@_STL@@@_STL@@AAE_N_N@Z 004059ce f i Kup.obj
 0001:00004a32       ?_M_setup_codecvt@?$basic_filebuf@DV?$char_traits@D@_STL@@@_STL@@AAEXABVlocale@2@@Z 00405a32 f i Kup.obj
 0001:00004a9d       ?sputc@?$basic_streambuf@DV?$char_traits@D@_STL@@@_STL@@QAEHD@Z 00405a9d f i Kup.obj
 0001:00004ac9       ?getline@_STL@@YAAAV?$basic_istream@DV?$char_traits@D@_STL@@@1@AAV21@AAV?$basic_string@DV?$char_traits@D@_STL@@V?$allocator@D@2@@1@D@Z 00405ac9 f i Kup.obj
 0001:00004b75       ?sbumpc@?$basic_streambuf@DV?$char_traits@D@_STL@@@_STL@@QAEHXZ 00405b75 f i Kup.obj
 0001:00004b92       ?__find_if@_STL@@YAPAVStringPair@ku_parser@@PAV23@0V?$binder2nd@UTblCmp@StrMapTable@ku_parser@@@1@ABUrandom_access_iterator_tag@1@@Z 00405b92 f i Kup.obj
 0001:00004c5b       ?__uninitialized_copy@_STL@@YAPAV?$list@U?$pair@V?$basic_string@DV?$char_traits@D@_STL@@V?$allocator@D@2@@_STL@@H@_STL@@V?$allocator@U?$pair@V?$basic_string@DV?$char_traits@D@_STL@@V?$allocator@D@2@@_STL@@H@_STL@@@2@@1@PAV21@00ABU__false_type@1@@Z 00405c5b f i Kup.obj
 0001:00004ccf       ?_M_append_dispatch@?$basic_string@DV?$char_traits@D@_STL@@V?$allocator@D@2@@_STL@@AAEAAV12@PBD0ABU__false_type@2@@Z 00405ccf f i Kup.obj
 0001:00004cec       ?_M_init@_STL@@YA_NAAV?$basic_ostream@DV?$char_traits@D@_STL@@@1@@Z 00405cec f i Kup.obj
 0001:00004d39       ?insert@?$list@U?$pair@V?$basic_string@DV?$char_traits@D@_STL@@V?$allocator@D@2@@_STL@@H@_STL@@V?$allocator@U?$pair@V?$basic_string@DV?$char_traits@D@_STL@@V?$allocator@D@2@@_STL@@H@_STL@@@2@@_STL@@QAEXU?$_List_iterator@U?$pair@V?$basic_string@DV?$char_traits@D@_STL@@V?$allocator@D@2@@_STL@@H@_STL@@U?$_Nonconst_traits@U?$pair@V?$basic_string@DV?$char_traits@D@_STL@@V?$allocator@D@2@@_STL@@H@_STL@@@2@@2@U?$_List_iterator@U?$pair@V?$basic_string@DV?$char_traits@D@_STL@@V?$allocator@D@2@@_STL@@H@_STL@@U?$_Const_traits@U?$pair@V?$basic_string@DV?$char_traits@D@_STL@@V?$allocator@D@2@@_STL@@H@_STL@@@2@@2@1@Z 00405d39 f i Kup.obj
 0001:00004d61       ?__uninitialized_fill_n@_STL@@YAPAV?$list@U?$pair@V?$basic_string@DV?$char_traits@D@_STL@@V?$allocator@D@2@@_STL@@H@_STL@@V?$allocator@U?$pair@V?$basic_string@DV?$char_traits@D@_STL@@V?$allocator@D@2@@_STL@@H@_STL@@@2@@1@PAV21@IABV21@ABU__false_type@1@@Z 00405d61 f i Kup.obj
 0001:00004dd5       ??0sentry@?$basic_istream@DV?$char_traits@D@_STL@@@_STL@@QAE@AAV12@_N@Z 00405dd5 f i Kup.obj
 0001:00004e06       ?_M_exit_putback_mode@?$basic_filebuf@DV?$char_traits@D@_STL@@@_STL@@AAEXXZ 00405e06 f i Kup.obj
 0001:00004e2e       ??0?$_List_iterator@U?$pair@V?$basic_string@DV?$char_traits@D@_STL@@V?$allocator@D@2@@_STL@@H@_STL@@U?$_Nonconst_traits@U?$pair@V?$basic_string@DV?$char_traits@D@_STL@@V?$allocator@D@2@@_STL@@H@_STL@@@2@@_STL@@QAE@ABU01@@Z 00405e2e f i Kup.obj
 0001:00004e3b       ?_M_unshift@?$basic_filebuf@DV?$char_traits@D@_STL@@@_STL@@AAE_NXZ 00405e3b f i Kup.obj
 0001:00004eab       ??4?$list@U?$pair@V?$basic_string@DV?$char_traits@D@_STL@@V?$allocator@D@2@@_STL@@H@_STL@@V?$allocator@U?$pair@V?$basic_string@DV?$char_traits@D@_STL@@V?$allocator@D@2@@_STL@@H@_STL@@@2@@_STL@@QAEAAV01@ABV01@@Z 00405eab f i Kup.obj
 0001:00004f2f       ?_M_insert_dispatch@?$list@U?$pair@V?$basic_string@DV?$char_traits@D@_STL@@V?$allocator@D@2@@_STL@@H@_STL@@V?$allocator@U?$pair@V?$basic_string@DV?$char_traits@D@_STL@@V?$allocator@D@2@@_STL@@H@_STL@@@2@@_STL@@QAEXU?$_List_iterator@U?$pair@V?$basic_string@DV?$char_traits@D@_STL@@V?$allocator@D@2@@_STL@@H@_STL@@U?$_Nonconst_traits@U?$pair@V?$basic_string@DV?$char_traits@D@_STL@@V?$allocator@D@2@@_STL@@H@_STL@@@2@@2@U?$_List_iterator@U?$pair@V?$basic_string@DV?$char_traits@D@_STL@@V?$allocator@D@2@@_STL@@H@_STL@@U?$_Const_traits@U?$pair@V?$basic_string@DV?$char_traits@D@_STL@@V?$allocator@D@2@@_STL@@H@_STL@@@2@@2@1ABU__false_type@2@@Z 00405f2f f i Kup.obj
 0001:00004f63       ?_M_init_noskip@_STL@@YA_NAAV?$basic_istream@DV?$char_traits@D@_STL@@@1@@Z 00405f63 f i Kup.obj
 0001:00004fb6       ?_M_init_skip@_STL@@YA_NAAV?$basic_istream@DV?$char_traits@D@_STL@@@1@@Z 00405fb6 f i Kup.obj
 0001:00005000       ??4?$pair@V?$basic_string@DV?$char_traits@D@_STL@@V?$allocator@D@2@@_STL@@H@_STL@@QAEAAU01@ABU01@@Z 00406000 f i Kup.obj
 0001:0000502a       ?erase@?$list@U?$pair@V?$basic_string@DV?$char_traits@D@_STL@@V?$allocator@D@2@@_STL@@H@_STL@@V?$allocator@U?$pair@V?$basic_string@DV?$char_traits@D@_STL@@V?$allocator@D@2@@_STL@@H@_STL@@@2@@_STL@@QAE?AU?$_List_iterator@U?$pair@V?$basic_string@DV?$char_traits@D@_STL@@V?$allocator@D@2@@_STL@@H@_STL@@U?$_Nonconst_traits@U?$pair@V?$basic_string@DV?$char_traits@D@_STL@@V?$allocator@D@2@@_STL@@H@_STL@@@2@@2@U32@0@Z 0040602a f i Kup.obj
 0001:0000505e       ?erase@?$list@U?$pair@V?$basic_string@DV?$char_traits@D@_STL@@V?$allocator@D@2@@_STL@@H@_STL@@V?$allocator@U?$pair@V?$basic_string@DV?$char_traits@D@_STL@@V?$allocator@D@2@@_STL@@H@_STL@@@2@@_STL@@QAE?AU?$_List_iterator@U?$pair@V?$basic_string@DV?$char_traits@D@_STL@@V?$allocator@D@2@@_STL@@H@_STL@@U?$_Nonconst_traits@U?$pair@V?$basic_string@DV?$char_traits@D@_STL@@V?$allocator@D@2@@_STL@@H@_STL@@@2@@2@U32@@Z 0040605e f i Kup.obj
 0001:0000508f       ?_M_skip_whitespace@?$basic_istream@DV?$char_traits@D@_STL@@@_STL@@QAEX_N@Z 0040608f f i Kup.obj
 0001:000050e1       ?_M_ignore_buffered@_STL@@YAXPAV?$basic_istream@DV?$char_traits@D@_STL@@@1@PAV?$basic_streambuf@DV?$char_traits@D@_STL@@@1@U?$_Is_not_wspace@V?$char_traits@D@_STL@@@1@U?$_Scan_for_not_wspace@V?$char_traits@D@_STL@@@1@_N4@Z 004060e1 f i Kup.obj
 0001:000051d9       ?sgetc@?$basic_streambuf@DV?$char_traits@D@_STL@@@_STL@@QAEHXZ 004061d9 f i Kup.obj
 0001:000051ee       ?_M_ignore_unbuffered@_STL@@YAXPAV?$basic_istream@DV?$char_traits@D@_STL@@@1@PAV?$basic_streambuf@DV?$char_traits@D@_STL@@@1@U?$_Is_not_wspace@V?$char_traits@D@_STL@@@1@_N3@Z 004061ee f i Kup.obj
 0001:000052ad       ?sputbackc@?$basic_streambuf@DV?$char_traits@D@_STL@@@_STL@@QAEHD@Z 004062ad f i Kup.obj
 0001:000052da       ??0cLexicon@@QAE@_NPADH@Z  004062da f   Lexicon.obj
 0001:00005350       ??1cLexicon@@QAE@XZ        00406350 f   Lexicon.obj
 0001:00005368       ?readLexicon@cLexicon@@AAEXPADPAVcBTree@@H@Z 00406368 f   Lexicon.obj
 0001:000054be       ?cmp@cLexicon@@SAHPBX0@Z   004064be f   Lexicon.obj
 0001:000054be       ?cmp@cDynamicRule@@SAHPBX0@Z 004064be f   Lexicon.obj
 0001:000054ce       ?pnt@cLexicon@@SAXPAU_iobuf@@PAX@Z 004064ce f   Lexicon.obj
 0001:000054eb       ?check@cLexicon@@QAE_NPAD0_N@Z 004064eb f   Lexicon.obj
 0001:0000555c       ?tree@cParseTree@@QAE_NPAU_Words@@PAUPhrases@@@Z 0040655c f   ParseTree.obj
 0001:00005604       ?parseNode@cParseTree@@AAE_NPAU_aPhrase@@0@Z 00406604 f   ParseTree.obj
 0001:000057c0       ?findNext@cParseTree@@AAEPAU_aPhrase@@PAU2@@Z 004067c0 f   ParseTree.obj
 0001:0000582f       ?getParent@cStaticRule@@QAEPAU_aPhrase@@PADFPAUPhrases@@@Z 0040682f f   StaticRule.obj
 0001:00005c36       ?getWordPOS@cStaticRule@@SA_NPADPAPAD1@Z 00406c36 f   StaticRule.obj
 0001:00005cbc       ?getPhrase@cStaticRule@@CAPAU_aPhrase@@FFPAUPhrases@@@Z 00406cbc f   StaticRule.obj
 0001:00005d57       ?checkSynTag@cStaticRule@@AAEXPAPAU_aPhrase@@@Z 00406d57 f   StaticRule.obj
 0001:00005d92       ?checkWord@cStaticRule@@CAXPAPAD0@Z 00406d92 f   StaticRule.obj
 0001:00005ef7       ?checkQuotation@cStaticRule@@AAEDPAD@Z 00406ef7 f   StaticRule.obj
 0001:00005f94       ?setParent@cStaticRule@@QAEPAU_aPhrase@@PAU2@00@Z 00406f94 f   StaticRule.obj
 0001:0000622b       ?getParent@cStaticRule@@QAEPAU_aPhrase@@PAU2@0PAUPhrases@@@Z 0040722b f   StaticRule.obj
 0001:00006268       ?tree@cWriteTree@@QAEXPAU_iobuf@@PAU_Words@@PAUPhrases@@@Z 00407268 f   WriteTree.obj
 0001:00006304       ?writePhrase@cWriteTree@@AAEXPAU_iobuf@@PAU_Words@@PAU_aPhrase@@F_N@Z 00407304 f   WriteTree.obj
 0001:0000647f       _main                      0040747f f   KupTest.obj
 0001:00006580       ?put@?$basic_ostream@DV?$char_traits@D@_STL@@@_STL@@QAEAAV12@D@Z 00407580 f i KupTest.obj
 0001:00006632       _CreateHanTag              00407632 f   HanTag:HanTag.dll
 0001:00006638       _LoadHanTagEngine          00407638 f   HanTag:HanTag.dll
 0001:0000663e       _EndHanTagEngine           0040763e f   HanTag:HanTag.dll
 0001:00006644       _FreeHanTag                00407644 f   HanTag:HanTag.dll
 0001:0000664a       _DoKomaAndHanTag           0040764a f   HanTag:HanTag.dll
 0001:00006650       _LoadKomaEngine            00407650 f   Koma:Koma.dll
 0001:00006656       _EndKomaEngine             00407656 f   Koma:Koma.dll
 0001:00006660       ?deallocate@?$allocator@G@_STL@@QAEXPAGI@Z 00407660 f i stlport_vc6_static:string_w.obj
 0001:00006690       ?_M_deallocate_block@?$_String_base@GV?$allocator@G@_STL@@@_STL@@QAEXXZ 00407690 f i stlport_vc6_static:string_w.obj
 0001:000066c0       ??0?$_String_base@GV?$allocator@G@_STL@@@_STL@@QAE@ABV?$allocator@G@1@@Z 004076c0 f i stlport_vc6_static:string_w.obj
 0001:000066d0       ??1?$_String_base@GV?$allocator@G@_STL@@@_STL@@QAE@XZ 004076d0 f i stlport_vc6_static:string_w.obj
 0001:00006760       ?get_allocator@?$basic_string@GV?$char_traits@G@_STL@@V?$allocator@G@2@@_STL@@QBE?AV?$allocator@G@2@XZ 00407760 f i stlport_vc6_static:string_w.obj
 0001:00006780       ?_M_acquire_lock@_STLP_mutex_base@_STL@@QAEXXZ 00407780 f i stlport_vc6_static:string_w.obj
 0001:00006870       ?_M_release_lock@_STLP_mutex_base@_STL@@QAEXXZ 00407870 f i stlport_vc6_static:string_w.obj
 0001:00006880       ??1?$basic_string@GV?$char_traits@G@_STL@@V?$allocator@G@2@@_STL@@QAE@XZ 00407880 f i stlport_vc6_static:string_w.obj
 0001:00006910       ??4?$basic_string@GV?$char_traits@G@_STL@@V?$allocator@G@2@@_STL@@QAEAAV01@ABV01@@Z 00407910 f i stlport_vc6_static:string_w.obj
 0001:000069a0       ?push_back@?$basic_string@GV?$char_traits@G@_STL@@V?$allocator@G@2@@_STL@@QAEXG@Z 004079a0 f i stlport_vc6_static:string_w.obj
 0001:00006a10       ?insert@?$basic_string@GV?$char_traits@G@_STL@@V?$allocator@G@2@@_STL@@QAEPAGPAGG@Z 00407a10 f i stlport_vc6_static:string_w.obj
 0001:00006a90       ?__stl_new@_STL@@YAPAXI@Z  00407a90 f i stlport_vc6_static:string_w.obj
 0001:00006aa0       ??1?$allocator@G@_STL@@QAE@XZ 00407aa0 f i stlport_vc6_static:string_w.obj
 0001:00006aa0       ??1?$_STLP_alloc_proxy@PAGGV?$allocator@G@_STL@@@_STL@@QAE@XZ 00407aa0 f i stlport_vc6_static:string_w.obj
 0001:00006aa0       ??1_STLP_mutex@_STL@@QAE@XZ 00407aa0 f i stlport_vc6_static:string_w.obj
 0001:00006ab0       ?_M_do_lock@?$_STLP_mutex_spin@$0A@@_STL@@SAXPCJ@Z 00407ab0 f i stlport_vc6_static:string_w.obj
 0001:00006ba0       ?reserve@?$basic_string@GV?$char_traits@G@_STL@@V?$allocator@G@2@@_STL@@QAEXI@Z 00407ba0 f i stlport_vc6_static:string_w.obj
 0001:00006ce0       ?_M_insert_aux@?$basic_string@GV?$char_traits@G@_STL@@V?$allocator@G@2@@_STL@@AAEPAGPAGG@Z 00407ce0 f i stlport_vc6_static:string_w.obj
 0001:00006eb0       ?_M_allocate@?$__node_alloc@$00$0A@@_STL@@CAPAXI@Z 00407eb0 f i stlport_vc6_static:string_w.obj
 0001:00007060       ?_M_deallocate@?$__node_alloc@$00$0A@@_STL@@CAXPAXI@Z 00408060 f i stlport_vc6_static:string_w.obj
 0001:00007190       ?_M_range_initialize@?$basic_string@GV?$char_traits@G@_STL@@V?$allocator@G@2@@_STL@@AAEXPBG0@Z 00408190 f i stlport_vc6_static:string_w.obj
 0001:00007190       ?_M_range_initialize@?$basic_string@GV?$char_traits@G@_STL@@V?$allocator@G@2@@_STL@@AAEXPAG0@Z 00408190 f i stlport_vc6_static:string_w.obj
 0001:00007220       ??1?$_Node_Alloc_Lock@$00$0A@@_STL@@QAE@XZ 00408220 f i stlport_vc6_static:string_w.obj
 0001:00007230       ?_S_refill@?$__node_alloc@$00$0A@@_STL@@CAPAXI@Z 00408230 f i stlport_vc6_static:string_w.obj
 0001:00007390       ?_M_range_initialize@?$basic_string@GV?$char_traits@G@_STL@@V?$allocator@G@2@@_STL@@AAEXPBG0ABUforward_iterator_tag@2@@Z 00408390 f i stlport_vc6_static:string_w.obj
 0001:00007420       ?_S_chunk_alloc@?$__node_alloc@$00$0A@@_STL@@CAPADIAAH@Z 00408420 f i stlport_vc6_static:string_w.obj
 0001:00007550       ?append@?$basic_string@GV?$char_traits@G@_STL@@V?$allocator@G@2@@_STL@@AAEAAV12@PAG0ABUforward_iterator_tag@2@@Z 00408550 f i stlport_vc6_static:string_w.obj
 0001:00007690       ?__stl_throw_out_of_range@_STL@@YAXPBD@Z 00408690 f   stlport_vc6_static:dll_main.obj
 0001:00007810       ??_Glogic_error@_STL@@UAEPAXI@Z 00408810 f i stlport_vc6_static:dll_main.obj
 0001:00007810       ??_Elogic_error@_STL@@UAEPAXI@Z 00408810 f i stlport_vc6_static:dll_main.obj
 0001:00007830       ??_Gout_of_range@_STL@@UAEPAXI@Z 00408830 f i stlport_vc6_static:dll_main.obj
 0001:00007830       ??_Eout_of_range@_STL@@UAEPAXI@Z 00408830 f i stlport_vc6_static:dll_main.obj
 0001:00007850       ??0out_of_range@_STL@@QAE@ABV01@@Z 00408850 f i stlport_vc6_static:dll_main.obj
 0001:000078a0       ??0logic_error@_STL@@QAE@ABV01@@Z 004088a0 f i stlport_vc6_static:dll_main.obj
 0001:000078f0       ?__stl_throw_length_error@_STL@@YAXPBD@Z 004088f0 f   stlport_vc6_static:dll_main.obj
 0001:00007a70       ??_Elength_error@_STL@@UAEPAXI@Z 00408a70 f i stlport_vc6_static:dll_main.obj
 0001:00007a70       ??_Glength_error@_STL@@UAEPAXI@Z 00408a70 f i stlport_vc6_static:dll_main.obj
 0001:00007a90       ??0length_error@_STL@@QAE@ABV01@@Z 00408a90 f i stlport_vc6_static:dll_main.obj
 0001:00007ae0       ?__get_c_string@_STL@@YAPBDABV?$basic_string@DV?$char_traits@D@_STL@@V?$allocator@D@2@@1@@Z 00408ae0 f   stlport_vc6_static:dll_main.obj
 0001:00007b00       ??0__Named_exception@_STL@@QAE@ABV?$basic_string@DV?$char_traits@D@_STL@@V?$allocator@D@2@@1@@Z 00408b00 f   stlport_vc6_static:dll_main.obj
 0001:00007b80       ?what@__Named_exception@_STL@@UBEPBDXZ 00408b80 f   stlport_vc6_static:dll_main.obj
 0001:00007ba0       ??1__Named_exception@_STL@@UAE@XZ 00408ba0 f   stlport_vc6_static:dll_main.obj
 0001:00007bc0       ??1logic_error@_STL@@UAE@XZ 00408bc0 f   stlport_vc6_static:dll_main.obj
 0001:00007be0       ??1runtime_error@_STL@@UAE@XZ 00408be0 f   stlport_vc6_static:dll_main.obj
 0001:00007c00       ??1length_error@_STL@@UAE@XZ 00408c00 f   stlport_vc6_static:dll_main.obj
 0001:00007c20       ??1out_of_range@_STL@@UAE@XZ 00408c20 f   stlport_vc6_static:dll_main.obj
 0001:00007c40       ??4?$basic_string@DV?$char_traits@D@_STL@@V?$allocator@D@2@@_STL@@QAEAAV01@ABV01@@Z 00408c40 f i stlport_vc6_static:dll_main.obj
 0001:00007d40       ?insert@?$basic_string@DV?$char_traits@D@_STL@@V?$allocator@D@2@@_STL@@QAEPADPADD@Z 00408d40 f i stlport_vc6_static:dll_main.obj
 0001:00007e20       ??0?$_String_base@DV?$allocator@D@_STL@@@_STL@@QAE@ABV?$allocator@D@1@@Z 00408e20 f i stlport_vc6_static:dll_main.obj
 0001:00007e60       ?deallocate@?$allocator@D@_STL@@QAEXPADI@Z 00408e60 f i stlport_vc6_static:dll_main.obj
 0001:00007ea0       ?copy@?$__char_traits_base@DH@_STL@@SAPADPADPBDI@Z 00408ea0 f i stlport_vc6_static:dll_main.obj
 0001:00007ee0       ?_M_insert_aux@?$basic_string@DV?$char_traits@D@_STL@@V?$allocator@D@2@@_STL@@AAEPADPADD@Z 00408ee0 f i stlport_vc6_static:dll_main.obj
 0001:00008340       ?_M_range_initialize@?$basic_string@DV?$char_traits@D@_STL@@V?$allocator@D@2@@_STL@@AAEXPAD0@Z 00409340 f i stlport_vc6_static:dll_main.obj
 0001:00008470       ?_M_range_initialize@?$basic_string@DV?$char_traits@D@_STL@@V?$allocator@D@2@@_STL@@AAEXPBD0@Z 00409470 f i stlport_vc6_static:dll_main.obj
 0001:00008590       ?__copy_aux@_STL@@YAPADPAD00ABU__true_type@1@@Z 00409590 f i stlport_vc6_static:dll_main.obj
 0001:00008620       ??0_Locale_impl@_STL@@QAE@PBD@Z 00409620 f   stlport_vc6_static:locale_impl.obj
 0001:00008700       ??_E_Locale_impl@_STL@@UAEPAXI@Z 00409700 f i stlport_vc6_static:locale_impl.obj
 0001:00008700       ??_G_Locale_impl@_STL@@UAEPAXI@Z 00409700 f i stlport_vc6_static:locale_impl.obj
 0001:00008720       ??1_Locale_impl@_STL@@UAE@XZ 00409720 f   stlport_vc6_static:locale_impl.obj
 0001:000087b0       ?incr@_Locale_impl@_STL@@UAEXXZ 004097b0 f   stlport_vc6_static:locale_impl.obj
 0001:000087b0       ?decr@_Locale_impl@_STL@@UAEXXZ 004097b0 f   stlport_vc6_static:locale_impl.obj
 0001:000087c0       ?_M_throw_bad_cast@_Locale_impl@_STL@@SAXXZ 004097c0 f   stlport_vc6_static:locale_impl.obj
 0001:000087e0       ??0bad_cast@@QAE@XZ        004097e0 f i stlport_vc6_static:locale_impl.obj
 0001:00008800       ??1bad_cast@@UAE@XZ        00409800 f i stlport_vc6_static:locale_impl.obj
 0001:00008810       ??0bad_cast@@QAE@ABV0@@Z   00409810 f i stlport_vc6_static:locale_impl.obj
 0001:00008830       ??_Ebad_cast@@UAEPAXI@Z    00409830 f i stlport_vc6_static:locale_impl.obj
 0001:00008830       ??_Gbad_cast@@UAEPAXI@Z    00409830 f i stlport_vc6_static:locale_impl.obj
 0001:00008890       ?make_classic_locale@_Locale_impl@_STL@@SAPAV12@XZ 00409890 f   stlport_vc6_static:locale_impl.obj
 0001:00008d10       ??_Efacet@locale@_STL@@MAEPAXI@Z 00409d10 f i stlport_vc6_static:locale_impl.obj
 0001:00008d10       ??_Gfacet@locale@_STL@@MAEPAXI@Z 00409d10 f i stlport_vc6_static:locale_impl.obj
 0001:00008d30       ??_G?$ctype@G@_STL@@MAEPAXI@Z 00409d30 f i stlport_vc6_static:locale_impl.obj
 0001:00008d30       ??_E?$ctype@G@_STL@@MAEPAXI@Z 00409d30 f i stlport_vc6_static:locale_impl.obj
 0001:00008d50       ??_G?$codecvt@DDH@_STL@@MAEPAXI@Z 00409d50 f i stlport_vc6_static:locale_impl.obj
 0001:00008d50       ??_E?$codecvt@DDH@_STL@@MAEPAXI@Z 00409d50 f i stlport_vc6_static:locale_impl.obj
 0001:00008d70       ??_G?$codecvt@GDH@_STL@@MAEPAXI@Z 00409d70 f i stlport_vc6_static:locale_impl.obj
 0001:00008d70       ??_E?$codecvt@GDH@_STL@@MAEPAXI@Z 00409d70 f i stlport_vc6_static:locale_impl.obj
 0001:00008d90       ??_E?$collate@D@_STL@@MAEPAXI@Z 00409d90 f i stlport_vc6_static:locale_impl.obj
 0001:00008d90       ??_G?$collate@D@_STL@@MAEPAXI@Z 00409d90 f i stlport_vc6_static:locale_impl.obj
 0001:00008db0       ??_E?$collate@G@_STL@@MAEPAXI@Z 00409db0 f i stlport_vc6_static:locale_impl.obj
 0001:00008db0       ??_G?$collate@G@_STL@@MAEPAXI@Z 00409db0 f i stlport_vc6_static:locale_impl.obj
 0001:00008dd0       ??_G?$numpunct@D@_STL@@UAEPAXI@Z 00409dd0 f i stlport_vc6_static:locale_impl.obj
 0001:00008dd0       ??_E?$numpunct@D@_STL@@UAEPAXI@Z 00409dd0 f i stlport_vc6_static:locale_impl.obj
 0001:00008df0       ??_E?$numpunct@G@_STL@@MAEPAXI@Z 00409df0 f i stlport_vc6_static:locale_impl.obj
 0001:00008df0       ??_G?$numpunct@G@_STL@@MAEPAXI@Z 00409df0 f i stlport_vc6_static:locale_impl.obj
 0001:00008e10       ??1facet@locale@_STL@@MAE@XZ 00409e10 f   stlport_vc6_static:locale_impl.obj
 0001:00008e20       ??0_Loc_init@ios_base@_STL@@QAE@XZ 00409e20 f   stlport_vc6_static:locale_impl.obj
 0001:00008e30       ??1_Loc_init@ios_base@_STL@@QAE@XZ 00409e30 f   stlport_vc6_static:locale_impl.obj
 0001:00008e40       ?_S_initialize@locale@_STL@@SAXXZ 00409e40 f   stlport_vc6_static:locale_impl.obj
 0001:00008fb0       ?_S_uninitialize@locale@_STL@@SAXXZ 00409fb0 f   stlport_vc6_static:locale_impl.obj
 0001:00008fd0       ??0locale@_STL@@QAE@XZ     00409fd0 f   stlport_vc6_static:locale_impl.obj
 0001:00008ff0       ??0locale@_STL@@QAE@PAV_Locale_impl@1@@Z 00409ff0 f   stlport_vc6_static:locale_impl.obj
 0001:00009000       ??0locale@_STL@@QAE@ABV01@@Z 0040a000 f   stlport_vc6_static:locale_impl.obj
 0001:00009020       ??1locale@_STL@@QAE@XZ     0040a020 f   stlport_vc6_static:locale_impl.obj
 0001:00009040       ??4locale@_STL@@QAEABV01@ABV01@@Z 0040a040 f   stlport_vc6_static:locale_impl.obj
 0001:00009070       ?_M_get_facet@locale@_STL@@QBEPAVfacet@12@ABVid@12@@Z 0040a070 f   stlport_vc6_static:locale_impl.obj
 0001:00009090       ?_M_use_facet@locale@_STL@@QBEPAVfacet@12@ABVid@12@@Z 0040a090 f   stlport_vc6_static:locale_impl.obj
 0001:000091e0       ?classic@locale@_STL@@SAABV12@XZ 0040a1e0 f   stlport_vc6_static:locale_impl.obj
 0001:000091f0       ?do_put@?$money_put@DV?$ostreambuf_iterator@DV?$char_traits@D@_STL@@@_STL@@@_STL@@MBE?AV?$ostreambuf_iterator@DV?$char_traits@D@_STL@@@2@V32@_NAAVios_base@2@DO@Z 0040a1f0 f i stlport_vc6_static:locale_impl.obj
 0001:000092f0       ?getloc@ios_base@_STL@@QBE?AVlocale@2@XZ 0040a2f0 f i stlport_vc6_static:locale_impl.obj
 0001:00009310       ?do_put@?$money_put@GV?$ostreambuf_iterator@GV?$char_traits@G@_STL@@@_STL@@@_STL@@MBE?AV?$ostreambuf_iterator@GV?$char_traits@G@_STL@@@2@V32@_NAAVios_base@2@GO@Z 0040a310 f i stlport_vc6_static:locale_impl.obj
 0001:00009430       ??_G?$money_get@DV?$istreambuf_iterator@DV?$char_traits@D@_STL@@@_STL@@@_STL@@MAEPAXI@Z 0040a430 f i stlport_vc6_static:locale_impl.obj
 0001:00009430       ??_E?$money_get@DV?$istreambuf_iterator@DV?$char_traits@D@_STL@@@_STL@@@_STL@@MAEPAXI@Z 0040a430 f i stlport_vc6_static:locale_impl.obj
 0001:00009450       ??1?$money_get@DV?$istreambuf_iterator@DV?$char_traits@D@_STL@@@_STL@@@_STL@@MAE@XZ 0040a450 f i stlport_vc6_static:locale_impl.obj
 0001:00009460       ??_E?$money_put@DV?$ostreambuf_iterator@DV?$char_traits@D@_STL@@@_STL@@@_STL@@MAEPAXI@Z 0040a460 f i stlport_vc6_static:locale_impl.obj
 0001:00009460       ??_G?$money_put@DV?$ostreambuf_iterator@DV?$char_traits@D@_STL@@@_STL@@@_STL@@MAEPAXI@Z 0040a460 f i stlport_vc6_static:locale_impl.obj
 0001:00009480       ??1?$money_put@DV?$ostreambuf_iterator@DV?$char_traits@D@_STL@@@_STL@@@_STL@@MAE@XZ 0040a480 f i stlport_vc6_static:locale_impl.obj
 0001:00009490       ??_G?$num_get@DV?$istreambuf_iterator@DV?$char_traits@D@_STL@@@_STL@@@_STL@@MAEPAXI@Z 0040a490 f i stlport_vc6_static:locale_impl.obj
 0001:00009490       ??_E?$num_get@DV?$istreambuf_iterator@DV?$char_traits@D@_STL@@@_STL@@@_STL@@MAEPAXI@Z 0040a490 f i stlport_vc6_static:locale_impl.obj
 0001:000094b0       ??1?$num_get@DV?$istreambuf_iterator@DV?$char_traits@D@_STL@@@_STL@@@_STL@@MAE@XZ 0040a4b0 f i stlport_vc6_static:locale_impl.obj
 0001:000094c0       ??_E?$num_put@DV?$ostreambuf_iterator@DV?$char_traits@D@_STL@@@_STL@@@_STL@@MAEPAXI@Z 0040a4c0 f i stlport_vc6_static:locale_impl.obj
 0001:000094c0       ??_G?$num_put@DV?$ostreambuf_iterator@DV?$char_traits@D@_STL@@@_STL@@@_STL@@MAEPAXI@Z 0040a4c0 f i stlport_vc6_static:locale_impl.obj
 0001:000094e0       ??1?$num_put@DV?$ostreambuf_iterator@DV?$char_traits@D@_STL@@@_STL@@@_STL@@MAE@XZ 0040a4e0 f i stlport_vc6_static:locale_impl.obj
 0001:000094f0       ??_E?$time_get@DV?$istreambuf_iterator@DV?$char_traits@D@_STL@@@_STL@@@_STL@@MAEPAXI@Z 0040a4f0 f i stlport_vc6_static:locale_impl.obj
 0001:000094f0       ??_G?$time_get@DV?$istreambuf_iterator@DV?$char_traits@D@_STL@@@_STL@@@_STL@@MAEPAXI@Z 0040a4f0 f i stlport_vc6_static:locale_impl.obj
 0001:00009510       ??1?$time_get@DV?$istreambuf_iterator@DV?$char_traits@D@_STL@@@_STL@@@_STL@@MAE@XZ 0040a510 f i stlport_vc6_static:locale_impl.obj
 0001:00009650       ??0_Time_Info@_STL@@QAE@XZ 0040a650 f i stlport_vc6_static:locale_impl.obj
 0001:00009820       ??1_Time_Info@_STL@@QAE@XZ 0040a820 f i stlport_vc6_static:locale_impl.obj
 0001:00009940       ??_E?$time_put@DV?$ostreambuf_iterator@DV?$char_traits@D@_STL@@@_STL@@@_STL@@MAEPAXI@Z 0040a940 f i stlport_vc6_static:locale_impl.obj
 0001:00009940       ??_G?$time_put@DV?$ostreambuf_iterator@DV?$char_traits@D@_STL@@@_STL@@@_STL@@MAEPAXI@Z 0040a940 f i stlport_vc6_static:locale_impl.obj
 0001:00009960       ??1?$time_put@DV?$ostreambuf_iterator@DV?$char_traits@D@_STL@@@_STL@@@_STL@@MAE@XZ 0040a960 f i stlport_vc6_static:locale_impl.obj
 0001:00009aa0       ??_E?$money_get@GV?$istreambuf_iterator@GV?$char_traits@G@_STL@@@_STL@@@_STL@@MAEPAXI@Z 0040aaa0 f i stlport_vc6_static:locale_impl.obj
 0001:00009aa0       ??_G?$money_get@GV?$istreambuf_iterator@GV?$char_traits@G@_STL@@@_STL@@@_STL@@MAEPAXI@Z 0040aaa0 f i stlport_vc6_static:locale_impl.obj
 0001:00009ac0       ??1?$money_get@GV?$istreambuf_iterator@GV?$char_traits@G@_STL@@@_STL@@@_STL@@MAE@XZ 0040aac0 f i stlport_vc6_static:locale_impl.obj
 0001:00009ad0       ??_G?$money_put@GV?$ostreambuf_iterator@GV?$char_traits@G@_STL@@@_STL@@@_STL@@MAEPAXI@Z 0040aad0 f i stlport_vc6_static:locale_impl.obj
 0001:00009ad0       ??_E?$money_put@GV?$ostreambuf_iterator@GV?$char_traits@G@_STL@@@_STL@@@_STL@@MAEPAXI@Z 0040aad0 f i stlport_vc6_static:locale_impl.obj
 0001:00009af0       ??1?$money_put@GV?$ostreambuf_iterator@GV?$char_traits@G@_STL@@@_STL@@@_STL@@MAE@XZ 0040aaf0 f i stlport_vc6_static:locale_impl.obj
 0001:00009b00       ??_G?$num_get@GV?$istreambuf_iterator@GV?$char_traits@G@_STL@@@_STL@@@_STL@@MAEPAXI@Z 0040ab00 f i stlport_vc6_static:locale_impl.obj
 0001:00009b00       ??_E?$num_get@GV?$istreambuf_iterator@GV?$char_traits@G@_STL@@@_STL@@@_STL@@MAEPAXI@Z 0040ab00 f i stlport_vc6_static:locale_impl.obj
 0001:00009b20       ??1?$num_get@GV?$istreambuf_iterator@GV?$char_traits@G@_STL@@@_STL@@@_STL@@MAE@XZ 0040ab20 f i stlport_vc6_static:locale_impl.obj
 0001:00009b30       ??_E?$num_put@GV?$ostreambuf_iterator@GV?$char_traits@G@_STL@@@_STL@@@_STL@@MAEPAXI@Z 0040ab30 f i stlport_vc6_static:locale_impl.obj
 0001:00009b30       ??_G?$num_put@GV?$ostreambuf_iterator@GV?$char_traits@G@_STL@@@_STL@@@_STL@@MAEPAXI@Z 0040ab30 f i stlport_vc6_static:locale_impl.obj
 0001:00009b50       ??1?$num_put@GV?$ostreambuf_iterator@GV?$char_traits@G@_STL@@@_STL@@@_STL@@MAE@XZ 0040ab50 f i stlport_vc6_static:locale_impl.obj
 0001:00009b60       ??_E?$time_get@GV?$istreambuf_iterator@GV?$char_traits@G@_STL@@@_STL@@@_STL@@MAEPAXI@Z 0040ab60 f i stlport_vc6_static:locale_impl.obj
 0001:00009b60       ??_G?$time_get@GV?$istreambuf_iterator@GV?$char_traits@G@_STL@@@_STL@@@_STL@@MAEPAXI@Z 0040ab60 f i stlport_vc6_static:locale_impl.obj
 0001:00009b80       ??1?$time_get@GV?$istreambuf_iterator@GV?$char_traits@G@_STL@@@_STL@@@_STL@@MAE@XZ 0040ab80 f i stlport_vc6_static:locale_impl.obj
 0001:00009cc0       ??_G?$time_put@GV?$ostreambuf_iterator@GV?$char_traits@G@_STL@@@_STL@@@_STL@@MAEPAXI@Z 0040acc0 f i stlport_vc6_static:locale_impl.obj
 0001:00009cc0       ??_E?$time_put@GV?$ostreambuf_iterator@GV?$char_traits@G@_STL@@@_STL@@@_STL@@MAEPAXI@Z 0040acc0 f i stlport_vc6_static:locale_impl.obj
 0001:00009ce0       ??1?$time_put@GV?$ostreambuf_iterator@GV?$char_traits@G@_STL@@@_STL@@@_STL@@MAE@XZ 0040ace0 f i stlport_vc6_static:locale_impl.obj
 0001:00009e20       ?do_get@?$money_get@DV?$istreambuf_iterator@DV?$char_traits@D@_STL@@@_STL@@@_STL@@MBE?AV?$istreambuf_iterator@DV?$char_traits@D@_STL@@@2@V32@0_NAAVios_base@2@AAHAAV?$basic_string@DV?$char_traits@D@_STL@@V?$allocator@D@2@@2@@Z 0040ae20 f i stlport_vc6_static:locale_impl.obj
 0001:0000ac80       ?grouping@?$moneypunct@D$00@_STL@@QBE?AV?$basic_string@DV?$char_traits@D@_STL@@V?$allocator@D@2@@2@XZ 0040bc80 f i stlport_vc6_static:locale_impl.obj
 0001:0000ac80       ?grouping@?$moneypunct@D$0A@@_STL@@QBE?AV?$basic_string@DV?$char_traits@D@_STL@@V?$allocator@D@2@@2@XZ 0040bc80 f i stlport_vc6_static:locale_impl.obj
 0001:0000ac80       ?grouping@?$moneypunct@G$00@_STL@@QBE?AV?$basic_string@DV?$char_traits@D@_STL@@V?$allocator@D@2@@2@XZ 0040bc80 f i stlport_vc6_static:locale_impl.obj
 0001:0000ac80       ?grouping@?$moneypunct@G$0A@@_STL@@QBE?AV?$basic_string@DV?$char_traits@D@_STL@@V?$allocator@D@2@@2@XZ 0040bc80 f i stlport_vc6_static:locale_impl.obj
 0001:0000ac80       ?grouping@?$numpunct@G@_STL@@QBE?AV?$basic_string@DV?$char_traits@D@_STL@@V?$allocator@D@2@@2@XZ 0040bc80 f i stlport_vc6_static:locale_impl.obj
 0001:0000aca0       ?negative_sign@?$moneypunct@G$0A@@_STL@@QBE?AV?$basic_string@GV?$char_traits@G@_STL@@V?$allocator@G@2@@2@XZ 0040bca0 f i stlport_vc6_static:locale_impl.obj
 0001:0000aca0       ?negative_sign@?$moneypunct@G$00@_STL@@QBE?AV?$basic_string@GV?$char_traits@G@_STL@@V?$allocator@G@2@@2@XZ 0040bca0 f i stlport_vc6_static:locale_impl.obj
 0001:0000aca0       ?negative_sign@?$moneypunct@D$0A@@_STL@@QBE?AV?$basic_string@DV?$char_traits@D@_STL@@V?$allocator@D@2@@2@XZ 0040bca0 f i stlport_vc6_static:locale_impl.obj
 0001:0000aca0       ?negative_sign@?$moneypunct@D$00@_STL@@QBE?AV?$basic_string@DV?$char_traits@D@_STL@@V?$allocator@D@2@@2@XZ 0040bca0 f i stlport_vc6_static:locale_impl.obj
 0001:0000acc0       ?do_get@?$money_get@DV?$istreambuf_iterator@DV?$char_traits@D@_STL@@@_STL@@@_STL@@MBE?AV?$istreambuf_iterator@DV?$char_traits@D@_STL@@@2@V32@0_NAAVios_base@2@AAHAAO@Z 0040bcc0 f i stlport_vc6_static:locale_impl.obj
 0001:0000aec0       ?do_put@?$money_put@DV?$ostreambuf_iterator@DV?$char_traits@D@_STL@@@_STL@@@_STL@@MBE?AV?$ostreambuf_iterator@DV?$char_traits@D@_STL@@@2@V32@_NAAVios_base@2@DABV?$basic_string@DV?$char_traits@D@_STL@@V?$allocator@D@2@@2@@Z 0040bec0 f i stlport_vc6_static:locale_impl.obj
 0001:0000ba50       ?do_get@?$num_get@DV?$istreambuf_iterator@DV?$char_traits@D@_STL@@@_STL@@@_STL@@MBE?AV?$istreambuf_iterator@DV?$char_traits@D@_STL@@@2@V32@0AAVios_base@2@AAHAA_K@Z 0040ca50 f i stlport_vc6_static:locale_impl.obj
 0001:0000bdd0       ?do_get@?$num_get@DV?$istreambuf_iterator@DV?$char_traits@D@_STL@@@_STL@@@_STL@@MBE?AV?$istreambuf_iterator@DV?$char_traits@D@_STL@@@2@V32@0AAVios_base@2@AAHAA_J@Z 0040cdd0 f i stlport_vc6_static:locale_impl.obj
 0001:0000c160       ?do_get@?$num_get@DV?$istreambuf_iterator@DV?$char_traits@D@_STL@@@_STL@@@_STL@@MBE?AV?$istreambuf_iterator@DV?$char_traits@D@_STL@@@2@V32@0AAVios_base@2@AAHAAO@Z 0040d160 f i stlport_vc6_static:locale_impl.obj
 0001:0000c470       ?do_get@?$num_get@DV?$istreambuf_iterator@DV?$char_traits@D@_STL@@@_STL@@@_STL@@MBE?AV?$istreambuf_iterator@DV?$char_traits@D@_STL@@@2@V32@0AAVios_base@2@AAHAAPAX@Z 0040d470 f i stlport_vc6_static:locale_impl.obj
 0001:0000c7f0       ?do_get@?$num_get@DV?$istreambuf_iterator@DV?$char_traits@D@_STL@@@_STL@@@_STL@@MBE?AV?$istreambuf_iterator@DV?$char_traits@D@_STL@@@2@V32@0AAVios_base@2@AAHAAN@Z 0040d7f0 f i stlport_vc6_static:locale_impl.obj
 0001:0000cb00       ?do_get@?$num_get@DV?$istreambuf_iterator@DV?$char_traits@D@_STL@@@_STL@@@_STL@@MBE?AV?$istreambuf_iterator@DV?$char_traits@D@_STL@@@2@V32@0AAVios_base@2@AAHAAM@Z 0040db00 f i stlport_vc6_static:locale_impl.obj
 0001:0000ce10       ?do_get@?$num_get@DV?$istreambuf_iterator@DV?$char_traits@D@_STL@@@_STL@@@_STL@@MBE?AV?$istreambuf_iterator@DV?$char_traits@D@_STL@@@2@V32@0AAVios_base@2@AAHAAK@Z 0040de10 f i stlport_vc6_static:locale_impl.obj
 0001:0000ce10       ?do_get@?$num_get@DV?$istreambuf_iterator@DV?$char_traits@D@_STL@@@_STL@@@_STL@@MBE?AV?$istreambuf_iterator@DV?$char_traits@D@_STL@@@2@V32@0AAVios_base@2@AAHAAI@Z 0040de10 f i stlport_vc6_static:locale_impl.obj
 0001:0000d0c0       ?do_get@?$num_get@DV?$istreambuf_iterator@DV?$char_traits@D@_STL@@@_STL@@@_STL@@MBE?AV?$istreambuf_iterator@DV?$char_traits@D@_STL@@@2@V32@0AAVios_base@2@AAHAAG@Z 0040e0c0 f i stlport_vc6_static:locale_impl.obj
 0001:0000d370       ?do_get@?$num_get@DV?$istreambuf_iterator@DV?$char_traits@D@_STL@@@_STL@@@_STL@@MBE?AV?$istreambuf_iterator@DV?$char_traits@D@_STL@@@2@V32@0AAVios_base@2@AAHAAJ@Z 0040e370 f i stlport_vc6_static:locale_impl.obj
 0001:0000d630       ?do_get@?$num_get@DV?$istreambuf_iterator@DV?$char_traits@D@_STL@@@_STL@@@_STL@@MBE?AV?$istreambuf_iterator@DV?$char_traits@D@_STL@@@2@V32@0AAVios_base@2@AAHAA_N@Z 0040e630 f i stlport_vc6_static:locale_impl.obj
 0001:0000d920       ?curr_symbol@?$moneypunct@G$00@_STL@@QBE?AV?$basic_string@GV?$char_traits@G@_STL@@V?$allocator@G@2@@2@XZ 0040e920 f i stlport_vc6_static:locale_impl.obj
 0001:0000d920       ?truename@?$numpunct@D@_STL@@QBE?AV?$basic_string@DV?$char_traits@D@_STL@@V?$allocator@D@2@@2@XZ 0040e920 f i stlport_vc6_static:locale_impl.obj
 0001:0000d920       ?truename@?$numpunct@G@_STL@@QBE?AV?$basic_string@GV?$char_traits@G@_STL@@V?$allocator@G@2@@2@XZ 0040e920 f i stlport_vc6_static:locale_impl.obj
 0001:0000d920       ?curr_symbol@?$moneypunct@D$0A@@_STL@@QBE?AV?$basic_string@DV?$char_traits@D@_STL@@V?$allocator@D@2@@2@XZ 0040e920 f i stlport_vc6_static:locale_impl.obj
 0001:0000d920       ?curr_symbol@?$moneypunct@G$0A@@_STL@@QBE?AV?$basic_string@GV?$char_traits@G@_STL@@V?$allocator@G@2@@2@XZ 0040e920 f i stlport_vc6_static:locale_impl.obj
 0001:0000d920       ?curr_symbol@?$moneypunct@D$00@_STL@@QBE?AV?$basic_string@DV?$char_traits@D@_STL@@V?$allocator@D@2@@2@XZ 0040e920 f i stlport_vc6_static:locale_impl.obj
 0001:0000d940       ?falsename@?$numpunct@G@_STL@@QBE?AV?$basic_string@GV?$char_traits@G@_STL@@V?$allocator@G@2@@2@XZ 0040e940 f i stlport_vc6_static:locale_impl.obj
 0001:0000d940       ?positive_sign@?$moneypunct@G$0A@@_STL@@QBE?AV?$basic_string@GV?$char_traits@G@_STL@@V?$allocator@G@2@@2@XZ 0040e940 f i stlport_vc6_static:locale_impl.obj
 0001:0000d940       ?positive_sign@?$moneypunct@G$00@_STL@@QBE?AV?$basic_string@GV?$char_traits@G@_STL@@V?$allocator@G@2@@2@XZ 0040e940 f i stlport_vc6_static:locale_impl.obj
 0001:0000d940       ?falsename@?$numpunct@D@_STL@@QBE?AV?$basic_string@DV?$char_traits@D@_STL@@V?$allocator@D@2@@2@XZ 0040e940 f i stlport_vc6_static:locale_impl.obj
 0001:0000d940       ?positive_sign@?$moneypunct@D$00@_STL@@QBE?AV?$basic_string@DV?$char_traits@D@_STL@@V?$allocator@D@2@@2@XZ 0040e940 f i stlport_vc6_static:locale_impl.obj
 0001:0000d940       ?positive_sign@?$moneypunct@D$0A@@_STL@@QBE?AV?$basic_string@DV?$char_traits@D@_STL@@V?$allocator@D@2@@2@XZ 0040e940 f i stlport_vc6_static:locale_impl.obj
 0001:0000d960       ?do_put@?$num_put@DV?$ostreambuf_iterator@DV?$char_traits@D@_STL@@@_STL@@@_STL@@MBE?AV?$ostreambuf_iterator@DV?$char_traits@D@_STL@@@2@V32@AAVios_base@2@DPBX@Z 0040e960 f i stlport_vc6_static:locale_impl.obj
 0001:0000d9e0       ?do_put@?$num_put@DV?$ostreambuf_iterator@DV?$char_traits@D@_STL@@@_STL@@@_STL@@MBE?AV?$ostreambuf_iterator@DV?$char_traits@D@_STL@@@2@V32@AAVios_base@2@D_K@Z 0040e9e0 f i stlport_vc6_static:locale_impl.obj
 0001:0000dbd0       ?do_put@?$num_put@DV?$ostreambuf_iterator@DV?$char_traits@D@_STL@@@_STL@@@_STL@@MBE?AV?$ostreambuf_iterator@DV?$char_traits@D@_STL@@@2@V32@AAVios_base@2@D_J@Z 0040ebd0 f i stlport_vc6_static:locale_impl.obj
 0001:0000ddf0       ?do_put@?$num_put@DV?$ostreambuf_iterator@DV?$char_traits@D@_STL@@@_STL@@@_STL@@MBE?AV?$ostreambuf_iterator@DV?$char_traits@D@_STL@@@2@V32@AAVios_base@2@DO@Z 0040edf0 f i stlport_vc6_static:locale_impl.obj
 0001:0000de30       ?do_put@?$num_put@DV?$ostreambuf_iterator@DV?$char_traits@D@_STL@@@_STL@@@_STL@@MBE?AV?$ostreambuf_iterator@DV?$char_traits@D@_STL@@@2@V32@AAVios_base@2@DN@Z 0040ee30 f i stlport_vc6_static:locale_impl.obj
 0001:0000de70       ?do_put@?$num_put@DV?$ostreambuf_iterator@DV?$char_traits@D@_STL@@@_STL@@@_STL@@MBE?AV?$ostreambuf_iterator@DV?$char_traits@D@_STL@@@2@V32@AAVios_base@2@DK@Z 0040ee70 f i stlport_vc6_static:locale_impl.obj
 0001:0000e060       ?do_put@?$num_put@DV?$ostreambuf_iterator@DV?$char_traits@D@_STL@@@_STL@@@_STL@@MBE?AV?$ostreambuf_iterator@DV?$char_traits@D@_STL@@@2@V32@AAVios_base@2@DJ@Z 0040f060 f i stlport_vc6_static:locale_impl.obj
 0001:0000e280       ?do_put@?$num_put@DV?$ostreambuf_iterator@DV?$char_traits@D@_STL@@@_STL@@@_STL@@MBE?AV?$ostreambuf_iterator@DV?$char_traits@D@_STL@@@2@V32@AAVios_base@2@D_N@Z 0040f280 f i stlport_vc6_static:locale_impl.obj
 0001:0000e570       ?do_get_time@?$time_get@DV?$istreambuf_iterator@DV?$char_traits@D@_STL@@@_STL@@@_STL@@MBE?AV?$istreambuf_iterator@DV?$char_traits@D@_STL@@@2@V32@0AAVios_base@2@AAHPAUtm@@@Z 0040f570 f i stlport_vc6_static:locale_impl.obj
 0001:0000e960       ?do_get_date@?$time_get@DV?$istreambuf_iterator@DV?$char_traits@D@_STL@@@_STL@@@_STL@@MBE?AV?$istreambuf_iterator@DV?$char_traits@D@_STL@@@2@V32@0AAVios_base@2@AAHPAUtm@@@Z 0040f960 f i stlport_vc6_static:locale_impl.obj
 0001:0000ed50       ?do_get_weekday@?$time_get@DV?$istreambuf_iterator@DV?$char_traits@D@_STL@@@_STL@@@_STL@@MBE?AV?$istreambuf_iterator@DV?$char_traits@D@_STL@@@2@V32@0AAVios_base@2@AAHPAUtm@@@Z 0040fd50 f i stlport_vc6_static:locale_impl.obj
 0001:0000f000       ?do_get_monthname@?$time_get@DV?$istreambuf_iterator@DV?$char_traits@D@_STL@@@_STL@@@_STL@@MBE?AV?$istreambuf_iterator@DV?$char_traits@D@_STL@@@2@V32@0AAVios_base@2@AAHPAUtm@@@Z 00410000 f i stlport_vc6_static:locale_impl.obj
 0001:0000f2d0       ?do_get_year@?$time_get@DV?$istreambuf_iterator@DV?$char_traits@D@_STL@@@_STL@@@_STL@@MBE?AV?$istreambuf_iterator@DV?$char_traits@D@_STL@@@2@V32@0AAVios_base@2@AAHPAUtm@@@Z 004102d0 f i stlport_vc6_static:locale_impl.obj
 0001:0000f440       ?do_put@?$time_put@DV?$ostreambuf_iterator@DV?$char_traits@D@_STL@@@_STL@@@_STL@@MBE?AV?$ostreambuf_iterator@DV?$char_traits@D@_STL@@@2@V32@AAVios_base@2@DPBUtm@@DD@Z 00410440 f i stlport_vc6_static:locale_impl.obj
 0001:0000f500       ?do_get@?$money_get@GV?$istreambuf_iterator@GV?$char_traits@G@_STL@@@_STL@@@_STL@@MBE?AV?$istreambuf_iterator@GV?$char_traits@G@_STL@@@2@V32@0_NAAVios_base@2@AAHAAV?$basic_string@GV?$char_traits@G@_STL@@V?$allocator@G@2@@2@@Z 00410500 f i stlport_vc6_static:locale_impl.obj
 0001:00010360       ?do_get@?$money_get@GV?$istreambuf_iterator@GV?$char_traits@G@_STL@@@_STL@@@_STL@@MBE?AV?$istreambuf_iterator@GV?$char_traits@G@_STL@@@2@V32@0_NAAVios_base@2@AAHAAO@Z 00411360 f i stlport_vc6_static:locale_impl.obj
 0001:00010570       ?do_put@?$money_put@GV?$ostreambuf_iterator@GV?$char_traits@G@_STL@@@_STL@@@_STL@@MBE?AV?$ostreambuf_iterator@GV?$char_traits@G@_STL@@@2@V32@_NAAVios_base@2@GABV?$basic_string@GV?$char_traits@G@_STL@@V?$allocator@G@2@@2@@Z 00411570 f i stlport_vc6_static:locale_impl.obj
 0001:00011140       ?do_get@?$num_get@GV?$istreambuf_iterator@GV?$char_traits@G@_STL@@@_STL@@@_STL@@MBE?AV?$istreambuf_iterator@GV?$char_traits@G@_STL@@@2@V32@0AAVios_base@2@AAHAA_K@Z 00412140 f i stlport_vc6_static:locale_impl.obj
 0001:000114d0       ?do_get@?$num_get@GV?$istreambuf_iterator@GV?$char_traits@G@_STL@@@_STL@@@_STL@@MBE?AV?$istreambuf_iterator@GV?$char_traits@G@_STL@@@2@V32@0AAVios_base@2@AAHAA_J@Z 004124d0 f i stlport_vc6_static:locale_impl.obj
 0001:00011870       ?do_get@?$num_get@GV?$istreambuf_iterator@GV?$char_traits@G@_STL@@@_STL@@@_STL@@MBE?AV?$istreambuf_iterator@GV?$char_traits@G@_STL@@@2@V32@0AAVios_base@2@AAHAAO@Z 00412870 f i stlport_vc6_static:locale_impl.obj
 0001:00011bd0       ?do_get@?$num_get@GV?$istreambuf_iterator@GV?$char_traits@G@_STL@@@_STL@@@_STL@@MBE?AV?$istreambuf_iterator@GV?$char_traits@G@_STL@@@2@V32@0AAVios_base@2@AAHAAPAX@Z 00412bd0 f i stlport_vc6_static:locale_impl.obj
 0001:00011f60       ?do_get@?$num_get@GV?$istreambuf_iterator@GV?$char_traits@G@_STL@@@_STL@@@_STL@@MBE?AV?$istreambuf_iterator@GV?$char_traits@G@_STL@@@2@V32@0AAVios_base@2@AAHAAN@Z 00412f60 f i stlport_vc6_static:locale_impl.obj
 0001:000122c0       ?do_get@?$num_get@GV?$istreambuf_iterator@GV?$char_traits@G@_STL@@@_STL@@@_STL@@MBE?AV?$istreambuf_iterator@GV?$char_traits@G@_STL@@@2@V32@0AAVios_base@2@AAHAAM@Z 004132c0 f i stlport_vc6_static:locale_impl.obj
 0001:00012620       ?do_get@?$num_get@GV?$istreambuf_iterator@GV?$char_traits@G@_STL@@@_STL@@@_STL@@MBE?AV?$istreambuf_iterator@GV?$char_traits@G@_STL@@@2@V32@0AAVios_base@2@AAHAAI@Z 00413620 f i stlport_vc6_static:locale_impl.obj
 0001:00012620       ?do_get@?$num_get@GV?$istreambuf_iterator@GV?$char_traits@G@_STL@@@_STL@@@_STL@@MBE?AV?$istreambuf_iterator@GV?$char_traits@G@_STL@@@2@V32@0AAVios_base@2@AAHAAK@Z 00413620 f i stlport_vc6_static:locale_impl.obj
 0001:000128f0       ?do_get@?$num_get@GV?$istreambuf_iterator@GV?$char_traits@G@_STL@@@_STL@@@_STL@@MBE?AV?$istreambuf_iterator@GV?$char_traits@G@_STL@@@2@V32@0AAVios_base@2@AAHAAG@Z 004138f0 f i stlport_vc6_static:locale_impl.obj
 0001:00012bd0       ?do_get@?$num_get@GV?$istreambuf_iterator@GV?$char_traits@G@_STL@@@_STL@@@_STL@@MBE?AV?$istreambuf_iterator@GV?$char_traits@G@_STL@@@2@V32@0AAVios_base@2@AAHAAJ@Z 00413bd0 f i stlport_vc6_static:locale_impl.obj
 0001:00012eb0       ?do_get@?$num_get@GV?$istreambuf_iterator@GV?$char_traits@G@_STL@@@_STL@@@_STL@@MBE?AV?$istreambuf_iterator@GV?$char_traits@G@_STL@@@2@V32@0AAVios_base@2@AAHAA_N@Z 00413eb0 f i stlport_vc6_static:locale_impl.obj
 0001:000131a0       ?do_put@?$num_put@GV?$ostreambuf_iterator@GV?$char_traits@G@_STL@@@_STL@@@_STL@@MBE?AV?$ostreambuf_iterator@GV?$char_traits@G@_STL@@@2@V32@AAVios_base@2@GPBX@Z 004141a0 f i stlport_vc6_static:locale_impl.obj
 0001:00013210       ?do_put@?$num_put@GV?$ostreambuf_iterator@GV?$char_traits@G@_STL@@@_STL@@@_STL@@MBE?AV?$ostreambuf_iterator@GV?$char_traits@G@_STL@@@2@V32@AAVios_base@2@G_K@Z 00414210 f i stlport_vc6_static:locale_impl.obj
 0001:00013330       ?do_put@?$num_put@GV?$ostreambuf_iterator@GV?$char_traits@G@_STL@@@_STL@@@_STL@@MBE?AV?$ostreambuf_iterator@GV?$char_traits@G@_STL@@@2@V32@AAVios_base@2@G_J@Z 00414330 f i stlport_vc6_static:locale_impl.obj
 0001:00013490       ?do_put@?$num_put@GV?$ostreambuf_iterator@GV?$char_traits@G@_STL@@@_STL@@@_STL@@MBE?AV?$ostreambuf_iterator@GV?$char_traits@G@_STL@@@2@V32@AAVios_base@2@GO@Z 00414490 f i stlport_vc6_static:locale_impl.obj
 0001:000134d0       ?do_put@?$num_put@GV?$ostreambuf_iterator@GV?$char_traits@G@_STL@@@_STL@@@_STL@@MBE?AV?$ostreambuf_iterator@GV?$char_traits@G@_STL@@@2@V32@AAVios_base@2@GN@Z 004144d0 f i stlport_vc6_static:locale_impl.obj
 0001:00013510       ?do_put@?$num_put@GV?$ostreambuf_iterator@GV?$char_traits@G@_STL@@@_STL@@@_STL@@MBE?AV?$ostreambuf_iterator@GV?$char_traits@G@_STL@@@2@V32@AAVios_base@2@GK@Z 00414510 f i stlport_vc6_static:locale_impl.obj
 0001:00013630       ?do_put@?$num_put@GV?$ostreambuf_iterator@GV?$char_traits@G@_STL@@@_STL@@@_STL@@MBE?AV?$ostreambuf_iterator@GV?$char_traits@G@_STL@@@2@V32@AAVios_base@2@GJ@Z 00414630 f i stlport_vc6_static:locale_impl.obj
 0001:000137a0       ?do_put@?$num_put@GV?$ostreambuf_iterator@GV?$char_traits@G@_STL@@@_STL@@@_STL@@MBE?AV?$ostreambuf_iterator@GV?$char_traits@G@_STL@@@2@V32@AAVios_base@2@G_N@Z 004147a0 f i stlport_vc6_static:locale_impl.obj
 0001:00013aa0       ?do_get_time@?$time_get@GV?$istreambuf_iterator@GV?$char_traits@G@_STL@@@_STL@@@_STL@@MBE?AV?$istreambuf_iterator@GV?$char_traits@G@_STL@@@2@V32@0AAVios_base@2@AAHPAUtm@@@Z 00414aa0 f i stlport_vc6_static:locale_impl.obj
 0001:00013e90       ?do_get_date@?$time_get@GV?$istreambuf_iterator@GV?$char_traits@G@_STL@@@_STL@@@_STL@@MBE?AV?$istreambuf_iterator@GV?$char_traits@G@_STL@@@2@V32@0AAVios_base@2@AAHPAUtm@@@Z 00414e90 f i stlport_vc6_static:locale_impl.obj
 0001:00014290       ?do_get_weekday@?$time_get@GV?$istreambuf_iterator@GV?$char_traits@G@_STL@@@_STL@@@_STL@@MBE?AV?$istreambuf_iterator@GV?$char_traits@G@_STL@@@2@V32@0AAVios_base@2@AAHPAUtm@@@Z 00415290 f i stlport_vc6_static:locale_impl.obj
 0001:00014540       ?do_get_monthname@?$time_get@GV?$istreambuf_iterator@GV?$char_traits@G@_STL@@@_STL@@@_STL@@MBE?AV?$istreambuf_iterator@GV?$char_traits@G@_STL@@@2@V32@0AAVios_base@2@AAHPAUtm@@@Z 00415540 f i stlport_vc6_static:locale_impl.obj
 0001:00014810       ?do_get_year@?$time_get@GV?$istreambuf_iterator@GV?$char_traits@G@_STL@@@_STL@@@_STL@@MBE?AV?$istreambuf_iterator@GV?$char_traits@G@_STL@@@2@V32@0AAVios_base@2@AAHPAUtm@@@Z 00415810 f i stlport_vc6_static:locale_impl.obj
 0001:00014980       ?do_put@?$time_put@GV?$ostreambuf_iterator@GV?$char_traits@G@_STL@@@_STL@@@_STL@@MBE?AV?$ostreambuf_iterator@GV?$char_traits@G@_STL@@@2@V32@AAVios_base@2@GPBUtm@@DD@Z 00415980 f i stlport_vc6_static:locale_impl.obj
 0001:00014a60       ??4?$ostreambuf_iterator@DV?$char_traits@D@_STL@@@_STL@@QAEAAV01@D@Z 00415a60 f i stlport_vc6_static:locale_impl.obj
 0001:00014ac0       ??4?$ostreambuf_iterator@GV?$char_traits@G@_STL@@@_STL@@QAEAAV01@G@Z 00415ac0 f i stlport_vc6_static:locale_impl.obj
 0001:00014b20       ??0?$_STLP_alloc_proxy@PAGGV?$allocator@G@_STL@@@_STL@@QAE@ABV?$allocator@G@1@PAG@Z 00415b20 f i stlport_vc6_static:locale_impl.obj
 0001:00014b30       ?_M_getc@?$istreambuf_iterator@DV?$char_traits@D@_STL@@@_STL@@ABEXXZ 00415b30 f i stlport_vc6_static:locale_impl.obj
 0001:00014b80       ?_M_getc@?$istreambuf_iterator@GV?$char_traits@G@_STL@@@_STL@@ABEXXZ 00415b80 f i stlport_vc6_static:locale_impl.obj
 0001:00014bd0       ?sputc@?$basic_streambuf@GV?$char_traits@G@_STL@@@_STL@@QAEGG@Z 00415bd0 f i stlport_vc6_static:locale_impl.obj
 0001:00014c00       ?sbumpc@?$basic_streambuf@GV?$char_traits@G@_STL@@@_STL@@QAEGXZ 00415c00 f i stlport_vc6_static:locale_impl.obj
 0001:00014c20       ?sgetc@?$basic_streambuf@GV?$char_traits@G@_STL@@@_STL@@QAEGXZ 00415c20 f i stlport_vc6_static:locale_impl.obj
 0001:00014c40       ?__get_string@_STL@@YA?AU?$pair@V?$istreambuf_iterator@DV?$char_traits@D@_STL@@@_STL@@_N@1@V?$istreambuf_iterator@DV?$char_traits@D@_STL@@@1@0PAD1@Z 00415c40 f i stlport_vc6_static:locale_impl.obj
 0001:00014d20       ?_M_do_put_float@_STL@@YA?AV?$ostreambuf_iterator@DV?$char_traits@D@_STL@@@1@V21@AAVios_base@1@DO@Z 00415d20 f i stlport_vc6_static:locale_impl.obj
 0001:00014e70       ?_M_do_put_float@_STL@@YA?AV?$ostreambuf_iterator@DV?$char_traits@D@_STL@@@1@V21@AAVios_base@1@DN@Z 00415e70 f i stlport_vc6_static:locale_impl.obj
 0001:00014fc0       ?__copy_integer_and_fill@_STL@@YA?AV?$ostreambuf_iterator@DV?$char_traits@D@_STL@@@1@PBDHV21@HHDDD@Z 00415fc0 f i stlport_vc6_static:locale_impl.obj
 0001:00015290       ?__get_decimal_integer@_STL@@YA_NAAV?$istreambuf_iterator@DV?$char_traits@D@_STL@@@1@0AAH@Z 00416290 f i stlport_vc6_static:locale_impl.obj
 0001:00015470       ?__get_string@_STL@@YA?AU?$pair@V?$istreambuf_iterator@GV?$char_traits@G@_STL@@@_STL@@_N@1@V?$istreambuf_iterator@GV?$char_traits@G@_STL@@@1@0PAG1@Z 00416470 f i stlport_vc6_static:locale_impl.obj
 0001:00015560       ?__put_integer@_STL@@YA?AV?$ostreambuf_iterator@GV?$char_traits@G@_STL@@@1@PAD0V21@AAVios_base@1@HG@Z 00416560 f i stlport_vc6_static:locale_impl.obj
 0001:00015890       ?_M_do_put_float@_STL@@YA?AV?$ostreambuf_iterator@GV?$char_traits@G@_STL@@@1@V21@AAVios_base@1@GO@Z 00416890 f i stlport_vc6_static:locale_impl.obj
 0001:000159c0       ?_M_do_put_float@_STL@@YA?AV?$ostreambuf_iterator@GV?$char_traits@G@_STL@@@1@V21@AAVios_base@1@GN@Z 004169c0 f i stlport_vc6_static:locale_impl.obj
 0001:00015af0       ?__get_decimal_integer@_STL@@YA_NAAV?$istreambuf_iterator@GV?$char_traits@G@_STL@@@1@0AAH@Z 00416af0 f i stlport_vc6_static:locale_impl.obj
 0001:00015cd0       ?equal@?$istreambuf_iterator@DV?$char_traits@D@_STL@@@_STL@@QBE_NABV12@@Z 00416cd0 f i stlport_vc6_static:locale_impl.obj
 0001:00015d60       ?equal@?$istreambuf_iterator@GV?$char_traits@G@_STL@@@_STL@@QBE_NABV12@@Z 00416d60 f i stlport_vc6_static:locale_impl.obj
 0001:00015de0       ??E?$istreambuf_iterator@DV?$char_traits@D@_STL@@@_STL@@QAE?AV01@H@Z 00416de0 f i stlport_vc6_static:locale_impl.obj
 0001:00015e30       ?mismatch@_STL@@YA?AU?$pair@V?$istreambuf_iterator@DV?$char_traits@D@_STL@@@_STL@@PAD@1@V?$istreambuf_iterator@DV?$char_traits@D@_STL@@@1@0PAD@Z 00416e30 f i stlport_vc6_static:locale_impl.obj
 0001:00015f20       ?__get_integer@_STL@@YA_NAAPAD0HAAOH_NDABV?$basic_string@DV?$char_traits@D@_STL@@V?$allocator@D@2@@1@ABU__false_type@1@@Z 00416f20 f i stlport_vc6_static:locale_impl.obj
 0001:000160a0       ?__copy_aux@_STL@@YA?AV?$ostreambuf_iterator@DV?$char_traits@D@_STL@@@1@PAD0V21@ABU__false_type@1@@Z 004170a0 f i stlport_vc6_static:locale_impl.obj
 0001:000160a0       ?copy@_STL@@YA?AV?$ostreambuf_iterator@DV?$char_traits@D@_STL@@@1@PBD0V21@@Z 004170a0 f i stlport_vc6_static:locale_impl.obj
 0001:000160a0       ?__copy_aux@_STL@@YA?AV?$ostreambuf_iterator@DV?$char_traits@D@_STL@@@1@PBD0V21@ABU__false_type@1@@Z 004170a0 f i stlport_vc6_static:locale_impl.obj
 0001:00016130       ?_M_get_base_or_zero@_STL@@YAHAAV?$istreambuf_iterator@DV?$char_traits@D@_STL@@@1@0AAVios_base@1@PAD@Z 00417130 f i stlport_vc6_static:locale_impl.obj
 0001:00016460       ?__copy_sign@_STL@@YA?AV?$istreambuf_iterator@DV?$char_traits@D@_STL@@@1@V21@0AAV?$basic_string@DV?$char_traits@D@_STL@@V?$allocator@D@2@@1@DD@Z 00417460 f i stlport_vc6_static:locale_impl.obj
 0001:00016590       ?__copy_grouped_digits@_STL@@YA_NAAV?$istreambuf_iterator@DV?$char_traits@D@_STL@@@1@0AAV?$basic_string@DV?$char_traits@D@_STL@@V?$allocator@D@2@@1@PBDDABV31@AA_N@Z 00417590 f i stlport_vc6_static:locale_impl.obj
 0001:00016700       ?__copy_digits@_STL@@YA_NAAV?$istreambuf_iterator@DV?$char_traits@D@_STL@@@1@0AAV?$basic_string@DV?$char_traits@D@_STL@@V?$allocator@D@2@@1@PBD@Z 00417700 f i stlport_vc6_static:locale_impl.obj
 0001:00016830       ?__put_float@_STL@@YA?AV?$ostreambuf_iterator@DV?$char_traits@D@_STL@@@1@PAD0V21@AAVios_base@1@DDDABV?$basic_string@DV?$char_traits@D@_STL@@V?$allocator@D@2@@1@@Z 00417830 f i stlport_vc6_static:locale_impl.obj
 0001:00016b20       ?fill_n@_STL@@YA?AV?$ostreambuf_iterator@DV?$char_traits@D@_STL@@@1@V21@HABD@Z 00417b20 f i stlport_vc6_static:locale_impl.obj
 0001:00016bb0       ??E?$istreambuf_iterator@GV?$char_traits@G@_STL@@@_STL@@QAE?AV01@H@Z 00417bb0 f i stlport_vc6_static:locale_impl.obj
 0001:00016c00       ?mismatch@_STL@@YA?AU?$pair@V?$istreambuf_iterator@GV?$char_traits@G@_STL@@@_STL@@PAG@1@V?$istreambuf_iterator@GV?$char_traits@G@_STL@@@1@0PAG@Z 00417c00 f i stlport_vc6_static:locale_impl.obj
 0001:00016ce0       ?__get_integer@_STL@@YA_NAAPAG0HAAOH_NDABV?$basic_string@DV?$char_traits@D@_STL@@V?$allocator@D@2@@1@ABU__false_type@1@@Z 00417ce0 f i stlport_vc6_static:locale_impl.obj
 0001:00016e60       ?__copy_aux@_STL@@YA?AV?$ostreambuf_iterator@GV?$char_traits@G@_STL@@@1@PAG0V21@ABU__false_type@1@@Z 00417e60 f i stlport_vc6_static:locale_impl.obj
 0001:00016e60       ?copy@_STL@@YA?AV?$ostreambuf_iterator@GV?$char_traits@G@_STL@@@1@PBG0V21@@Z 00417e60 f i stlport_vc6_static:locale_impl.obj
 0001:00016e60       ?__copy_aux@_STL@@YA?AV?$ostreambuf_iterator@GV?$char_traits@G@_STL@@@1@PBG0V21@ABU__false_type@1@@Z 00417e60 f i stlport_vc6_static:locale_impl.obj
 0001:00016ee0       ?_M_get_base_or_zero@_STL@@YAHAAV?$istreambuf_iterator@GV?$char_traits@G@_STL@@@1@0AAVios_base@1@PAG@Z 00417ee0 f i stlport_vc6_static:locale_impl.obj
 0001:00017210       ?__copy_sign@_STL@@YA?AV?$istreambuf_iterator@GV?$char_traits@G@_STL@@@1@V21@0AAV?$basic_string@DV?$char_traits@D@_STL@@V?$allocator@D@2@@1@GG@Z 00418210 f i stlport_vc6_static:locale_impl.obj
 0001:00017340       ?__copy_grouped_digits@_STL@@YA_NAAV?$istreambuf_iterator@GV?$char_traits@G@_STL@@@1@0AAV?$basic_string@DV?$char_traits@D@_STL@@V?$allocator@D@2@@1@PBGGABV31@AA_N@Z 00418340 f i stlport_vc6_static:locale_impl.obj
 0001:000174e0       ?__copy_digits@_STL@@YA_NAAV?$istreambuf_iterator@GV?$char_traits@G@_STL@@@1@0AAV?$basic_string@DV?$char_traits@D@_STL@@V?$allocator@D@2@@1@PBG@Z 004184e0 f i stlport_vc6_static:locale_impl.obj
 0001:00017630       ?__put_float@_STL@@YA?AV?$ostreambuf_iterator@GV?$char_traits@G@_STL@@@1@PAD0V21@AAVios_base@1@GGGABV?$basic_string@DV?$char_traits@D@_STL@@V?$allocator@D@2@@1@@Z 00418630 f i stlport_vc6_static:locale_impl.obj
 0001:000179a0       ?fill_n@_STL@@YA?AV?$ostreambuf_iterator@GV?$char_traits@G@_STL@@@1@V21@HABG@Z 004189a0 f i stlport_vc6_static:locale_impl.obj
 0001:00017a10       ??0?$pair@V?$istreambuf_iterator@GV?$char_traits@G@_STL@@@_STL@@_N@_STL@@QAE@ABV?$istreambuf_iterator@GV?$char_traits@G@_STL@@@1@AB_N@Z 00418a10 f i stlport_vc6_static:locale_impl.obj
 0001:00017a10       ??0?$pair@V?$istreambuf_iterator@DV?$char_traits@D@_STL@@@_STL@@_N@_STL@@QAE@ABV?$istreambuf_iterator@DV?$char_traits@D@_STL@@@1@AB_N@Z 00418a10 f i stlport_vc6_static:locale_impl.obj
 0001:00017a30       ?__copy@_STL@@YA?AV?$ostreambuf_iterator@DV?$char_traits@D@_STL@@@1@PBD0V21@ABUrandom_access_iterator_tag@1@PAH@Z 00418a30 f i stlport_vc6_static:locale_impl.obj
 0001:00017a30       ?__copy@_STL@@YA?AV?$ostreambuf_iterator@DV?$char_traits@D@_STL@@@1@PAD0V21@ABUrandom_access_iterator_tag@1@PAH@Z 00418a30 f i stlport_vc6_static:locale_impl.obj
 0001:00017ac0       ?__match@_STL@@YAPAV?$basic_string@DV?$char_traits@D@_STL@@V?$allocator@D@2@@1@AAV?$istreambuf_iterator@DV?$char_traits@D@_STL@@@1@0PAV21@1PAH@Z 00418ac0 f i stlport_vc6_static:locale_impl.obj
 0001:00017cd0       ?__copy@_STL@@YA?AV?$ostreambuf_iterator@GV?$char_traits@G@_STL@@@1@PAG0V21@ABUrandom_access_iterator_tag@1@PAH@Z 00418cd0 f i stlport_vc6_static:locale_impl.obj
 0001:00017cd0       ?__copy@_STL@@YA?AV?$ostreambuf_iterator@GV?$char_traits@G@_STL@@@1@PBG0V21@ABUrandom_access_iterator_tag@1@PAH@Z 00418cd0 f i stlport_vc6_static:locale_impl.obj
 0001:00017d50       ?__match@_STL@@YAPAV?$basic_string@DV?$char_traits@D@_STL@@V?$allocator@D@2@@1@AAV?$istreambuf_iterator@GV?$char_traits@G@_STL@@@1@0PAV21@1PAH@Z 00418d50 f i stlport_vc6_static:locale_impl.obj
 0001:00017f60       ?__find@_STL@@YAPADPAD0ABDABUrandom_access_iterator_tag@1@@Z 00418f60 f i stlport_vc6_static:locale_impl.obj
 0001:00017fd0       ?__find@_STL@@YAPAGPAG0ABGABUrandom_access_iterator_tag@1@@Z 00418fd0 f i stlport_vc6_static:locale_impl.obj
 0001:000182d0       ??0Init@ios_base@_STL@@QAE@XZ 004192d0 f   stlport_vc6_static:iostream.obj
 0001:000182e0       ??1Init@ios_base@_STL@@QAE@XZ 004192e0 f   stlport_vc6_static:iostream.obj
 0001:000182f0       ?_Stl_create_filebuf@_STL@@YAPAV?$basic_filebuf@DV?$char_traits@D@_STL@@@1@PAU_iobuf@@H@Z 004192f0 f   stlport_vc6_static:iostream.obj
 0001:00018480       ?_FILE_I_set@_STL@@YAXPAU_iobuf@@PAD11@Z 00419480 f i stlport_vc6_static:iostream.obj
 0001:000184a0       ?_Stl_create_wfilebuf@_STL@@YAPAV?$basic_filebuf@GV?$char_traits@G@_STL@@@1@PAU_iobuf@@H@Z 004194a0 f   stlport_vc6_static:iostream.obj
 0001:00018600       ?_S_initialize@ios_base@_STL@@KAXXZ 00419600 f   stlport_vc6_static:iostream.obj
 0001:00018d50       ??_Gstdio_istreambuf@_SgI@@UAEPAXI@Z 00419d50 f i stlport_vc6_static:iostream.obj
 0001:00018d50       ??_Estdio_istreambuf@_SgI@@UAEPAXI@Z 00419d50 f i stlport_vc6_static:iostream.obj
 0001:00018d70       ??_Estdio_ostreambuf@_SgI@@UAEPAXI@Z 00419d70 f i stlport_vc6_static:iostream.obj
 0001:00018d70       ??_Gstdio_ostreambuf@_SgI@@UAEPAXI@Z 00419d70 f i stlport_vc6_static:iostream.obj
 0001:00018d90       ?_S_uninitialize@ios_base@_STL@@KAXXZ 00419d90 f   stlport_vc6_static:iostream.obj
 0001:000190c0       ?_M_check_exception_mask@ios_base@_STL@@IAEXXZ 0041a0c0 f i stlport_vc6_static:iostream.obj
 0001:000190d0       ??0?$basic_istream@GV?$char_traits@G@_STL@@@_STL@@QAE@PAV?$basic_streambuf@GV?$char_traits@G@_STL@@@1@@Z 0041a0d0 f i stlport_vc6_static:iostream.obj
 0001:000191e0       ??1?$basic_ios@GV?$char_traits@G@_STL@@@_STL@@UAE@XZ 0041a1e0 f i stlport_vc6_static:iostream.obj
 0001:000191f0       ??_E?$basic_istream@GV?$char_traits@G@_STL@@@_STL@@UAEPAXI@Z 0041a1f0 f i stlport_vc6_static:iostream.obj
 0001:000191f0       ??_G?$basic_istream@GV?$char_traits@G@_STL@@@_STL@@UAEPAXI@Z 0041a1f0 f i stlport_vc6_static:iostream.obj
 0001:00019220       ??_E?$basic_ios@GV?$char_traits@G@_STL@@@_STL@@UAEPAXI@Z 0041a220 f i stlport_vc6_static:iostream.obj
 0001:00019220       ??_G?$basic_ios@GV?$char_traits@G@_STL@@@_STL@@UAEPAXI@Z 0041a220 f i stlport_vc6_static:iostream.obj
 0001:00019240       ?clear@?$basic_ios@GV?$char_traits@G@_STL@@@_STL@@QAEXH@Z 0041a240 f i stlport_vc6_static:iostream.obj
 0001:00019260       ?rdbuf@?$basic_ios@DV?$char_traits@D@_STL@@@_STL@@QAEPAV?$basic_streambuf@DV?$char_traits@D@_STL@@@2@PAV32@@Z 0041a260 f i stlport_vc6_static:iostream.obj
 0001:00019290       ??0?$basic_ostream@DV?$char_traits@D@_STL@@@_STL@@QAE@PAV?$basic_streambuf@DV?$char_traits@D@_STL@@@1@@Z 0041a290 f i stlport_vc6_static:iostream.obj
 0001:00019390       ?count@_STL@@YAHPAD0ABD@Z  0041a390 f i stlport_vc6_static:iostream.obj
 0001:000193c0       ?init@?$basic_ios@GV?$char_traits@G@_STL@@@_STL@@IAEXPAV?$basic_streambuf@GV?$char_traits@G@_STL@@@2@@Z 0041a3c0 f i stlport_vc6_static:iostream.obj
 0001:00019470       ??0?$basic_ostream@GV?$char_traits@G@_STL@@@_STL@@QAE@PAV?$basic_streambuf@GV?$char_traits@G@_STL@@@1@@Z 0041a470 f i stlport_vc6_static:iostream.obj
 0001:00019580       ??1?$basic_streambuf@GV?$char_traits@G@_STL@@@_STL@@UAE@XZ 0041a580 f i stlport_vc6_static:iostream.obj
 0001:00019590       ?setbuf@?$basic_streambuf@GV?$char_traits@G@_STL@@@_STL@@MAEPAV12@PAGH@Z 0041a590 f i stlport_vc6_static:iostream.obj
 0001:000195a0       ?seekpos@?$basic_streambuf@GV?$char_traits@G@_STL@@@_STL@@MAE?AV?$fpos@H@2@V32@H@Z 0041a5a0 f i stlport_vc6_static:iostream.obj
 0001:000195a0       ?seekoff@?$basic_streambuf@GV?$char_traits@G@_STL@@@_STL@@MAE?AV?$fpos@H@2@JHH@Z 0041a5a0 f i stlport_vc6_static:iostream.obj
 0001:000195c0       ?showmanyc@?$basic_streambuf@GV?$char_traits@G@_STL@@@_STL@@MAEHXZ 0041a5c0 f i stlport_vc6_static:iostream.obj
 0001:000195c0       ?do_date_order@?$time_get@GV?$istreambuf_iterator@GV?$char_traits@G@_STL@@@_STL@@@_STL@@MBE?AW4dateorder@time_base@2@XZ 0041a5c0 f i stlport_vc6_static:iostream.obj
 0001:000195c0       ?sync@?$basic_streambuf@GV?$char_traits@G@_STL@@@_STL@@MAEHXZ 0041a5c0 f i stlport_vc6_static:iostream.obj
 0001:000195c0       ?do_date_order@?$time_get@DV?$istreambuf_iterator@DV?$char_traits@D@_STL@@@_STL@@@_STL@@MBE?AW4dateorder@time_base@2@XZ 0041a5c0 f i stlport_vc6_static:iostream.obj
 0001:000195d0       ?xsgetn@?$basic_streambuf@GV?$char_traits@G@_STL@@@_STL@@MAEHPAGH@Z 0041a5d0 f i stlport_vc6_static:iostream.obj
 0001:00019670       ?underflow@?$basic_streambuf@GV?$char_traits@G@_STL@@@_STL@@MAEGXZ 0041a670 f i stlport_vc6_static:iostream.obj
 0001:00019680       ?uflow@?$basic_streambuf@GV?$char_traits@G@_STL@@@_STL@@MAEGXZ 0041a680 f i stlport_vc6_static:iostream.obj
 0001:000196b0       ?pbackfail@?$basic_streambuf@GV?$char_traits@G@_STL@@@_STL@@MAEGG@Z 0041a6b0 f i stlport_vc6_static:iostream.obj
 0001:000196b0       ?overflow@?$basic_streambuf@GV?$char_traits@G@_STL@@@_STL@@MAEGG@Z 0041a6b0 f i stlport_vc6_static:iostream.obj
 0001:000196c0       ?xsputn@?$basic_streambuf@GV?$char_traits@G@_STL@@@_STL@@MAEHPBGH@Z 0041a6c0 f i stlport_vc6_static:iostream.obj
 0001:00019770       ?_M_xsputnc@?$basic_streambuf@GV?$char_traits@G@_STL@@@_STL@@MAEHGH@Z 0041a770 f i stlport_vc6_static:iostream.obj
 0001:00019800       ?imbue@?$basic_streambuf@GV?$char_traits@G@_STL@@@_STL@@MAEXABVlocale@2@@Z 0041a800 f i stlport_vc6_static:iostream.obj
 0001:00019810       ?showmanyc@?$basic_filebuf@GV?$char_traits@G@_STL@@@_STL@@MAEHXZ 0041a810 f i stlport_vc6_static:iostream.obj
 0001:00019870       ?underflow@?$basic_filebuf@GV?$char_traits@G@_STL@@@_STL@@MAEGXZ 0041a870 f i stlport_vc6_static:iostream.obj
 0001:00019a40       ?pbackfail@?$basic_filebuf@GV?$char_traits@G@_STL@@@_STL@@MAEGG@Z 0041aa40 f i stlport_vc6_static:iostream.obj
 0001:00019af0       ?overflow@?$basic_filebuf@GV?$char_traits@G@_STL@@@_STL@@MAEGG@Z 0041aaf0 f i stlport_vc6_static:iostream.obj
 0001:00019ca0       ?setbuf@?$basic_filebuf@GV?$char_traits@G@_STL@@@_STL@@MAEPAV?$basic_streambuf@GV?$char_traits@G@_STL@@@2@PAGH@Z 0041aca0 f i stlport_vc6_static:iostream.obj
 0001:00019e40       ?seekoff@?$basic_filebuf@GV?$char_traits@G@_STL@@@_STL@@MAE?AV?$fpos@H@2@JHH@Z 0041ae40 f i stlport_vc6_static:iostream.obj
 0001:0001a320       ?seekpos@?$basic_filebuf@GV?$char_traits@G@_STL@@@_STL@@MAE?AV?$fpos@H@2@V32@H@Z 0041b320 f i stlport_vc6_static:iostream.obj
 0001:0001a410       ?sync@?$basic_filebuf@GV?$char_traits@G@_STL@@@_STL@@MAEHXZ 0041b410 f i stlport_vc6_static:iostream.obj
 0001:0001a430       ?imbue@?$basic_filebuf@GV?$char_traits@G@_STL@@@_STL@@MAEXABVlocale@2@@Z 0041b430 f i stlport_vc6_static:iostream.obj
 0001:0001a4b0       ??_G?$basic_ostream@DV?$char_traits@D@_STL@@@_STL@@UAEPAXI@Z 0041b4b0 f i stlport_vc6_static:iostream.obj
 0001:0001a4b0       ??_E?$basic_ostream@DV?$char_traits@D@_STL@@@_STL@@UAEPAXI@Z 0041b4b0 f i stlport_vc6_static:iostream.obj
 0001:0001a4e0       ??_E?$basic_ostream@GV?$char_traits@G@_STL@@@_STL@@UAEPAXI@Z 0041b4e0 f i stlport_vc6_static:iostream.obj
 0001:0001a4e0       ??_G?$basic_ostream@GV?$char_traits@G@_STL@@@_STL@@UAEPAXI@Z 0041b4e0 f i stlport_vc6_static:iostream.obj
 0001:0001a510       ??_G?$basic_streambuf@GV?$char_traits@G@_STL@@@_STL@@UAEPAXI@Z 0041b510 f i stlport_vc6_static:iostream.obj
 0001:0001a510       ??_E?$basic_streambuf@GV?$char_traits@G@_STL@@@_STL@@UAEPAXI@Z 0041b510 f i stlport_vc6_static:iostream.obj
 0001:0001a530       ??_G?$basic_filebuf@GV?$char_traits@G@_STL@@@_STL@@UAEPAXI@Z 0041b530 f i stlport_vc6_static:iostream.obj
 0001:0001a530       ??_E?$basic_filebuf@GV?$char_traits@G@_STL@@@_STL@@UAEPAXI@Z 0041b530 f i stlport_vc6_static:iostream.obj
 0001:0001a550       ??1?$basic_filebuf@GV?$char_traits@G@_STL@@@_STL@@UAE@XZ 0041b550 f i stlport_vc6_static:iostream.obj
 0001:0001a6e0       ?unshift@?$codecvt@GDH@_STL@@QBE?AW4result@codecvt_base@2@AAHPAD1AAPAD@Z 0041b6e0 f i stlport_vc6_static:iostream.obj
 0001:0001a700       ?setg@?$basic_streambuf@GV?$char_traits@G@_STL@@@_STL@@IAEXPAG00@Z 0041b700 f i stlport_vc6_static:iostream.obj
 0001:0001a720       ?setp@?$basic_streambuf@GV?$char_traits@G@_STL@@@_STL@@IAEXPAG0@Z 0041b720 f i stlport_vc6_static:iostream.obj
 0001:0001a740       ??1?$_Filebuf_Tmp_Buf@G@_STL@@QAE@XZ 0041b740 f i stlport_vc6_static:iostream.obj
 0001:0001a750       ?imbue@?$basic_ios@GV?$char_traits@G@_STL@@@_STL@@QAE?AVlocale@2@ABV32@@Z 0041b750 f i stlport_vc6_static:iostream.obj
 0001:0001a8b0       ?_M_exit_input_mode@?$basic_filebuf@GV?$char_traits@G@_STL@@@_STL@@AAEXXZ 0041b8b0 f i stlport_vc6_static:iostream.obj
 0001:0001a8e0       ?_M_allocate_buffers@?$basic_filebuf@GV?$char_traits@G@_STL@@@_STL@@AAE_NPAGH@Z 0041b8e0 f i stlport_vc6_static:iostream.obj
 0001:0001a9c0       ?_M_setup_codecvt@?$basic_filebuf@GV?$char_traits@G@_STL@@@_STL@@AAEXABVlocale@2@@Z 0041b9c0 f i stlport_vc6_static:iostream.obj
 0001:0001aa30       ?_M_exit_putback_mode@?$basic_filebuf@GV?$char_traits@G@_STL@@@_STL@@AAEXXZ 0041ba30 f i stlport_vc6_static:iostream.obj
 0001:0001aa50       ?pubimbue@?$basic_streambuf@GV?$char_traits@G@_STL@@@_STL@@QAE?AVlocale@2@ABV32@@Z 0041ba50 f i stlport_vc6_static:iostream.obj
 0001:0001aae0       ?_M_unshift@?$basic_filebuf@GV?$char_traits@G@_STL@@@_STL@@AAE_NXZ 0041bae0 f i stlport_vc6_static:iostream.obj
 0001:0001ab60       ??0failure@ios_base@_STL@@QAE@ABV?$basic_string@DV?$char_traits@D@_STL@@V?$allocator@D@2@@2@@Z 0041bb60 f   stlport_vc6_static:ios.obj
 0001:0001ab80       ??_Efailure@ios_base@_STL@@UAEPAXI@Z 0041bb80 f i stlport_vc6_static:ios.obj
 0001:0001ab80       ??_Gfailure@ios_base@_STL@@UAEPAXI@Z 0041bb80 f i stlport_vc6_static:ios.obj
 0001:0001aba0       ??1failure@ios_base@_STL@@UAE@XZ 0041bba0 f   stlport_vc6_static:ios.obj
 0001:0001abb0       ?imbue@ios_base@_STL@@QAE?AVlocale@2@ABV32@@Z 0041bbb0 f   stlport_vc6_static:ios.obj
 0001:0001ac40       ?_M_invoke_callbacks@ios_base@_STL@@IAEXW4event@12@@Z 0041bc40 f   stlport_vc6_static:ios.obj
 0001:0001ac70       ?_M_throw_failure@ios_base@_STL@@IAEXXZ 0041bc70 f   stlport_vc6_static:ios.obj
 0001:0001ad20       ??0failure@ios_base@_STL@@QAE@ABV012@@Z 0041bd20 f i stlport_vc6_static:ios.obj
 0001:0001ad50       ??0ios_base@_STL@@IAE@XZ   0041bd50 f   stlport_vc6_static:ios.obj
 0001:0001ae80       ??_Gios_base@_STL@@UAEPAXI@Z 0041be80 f i stlport_vc6_static:ios.obj
 0001:0001ae80       ??_Eios_base@_STL@@UAEPAXI@Z 0041be80 f i stlport_vc6_static:ios.obj
 0001:0001aea0       ??1ios_base@_STL@@UAE@XZ   0041bea0 f   stlport_vc6_static:ios.obj
 0001:0001afb0       ?flag_to_openmode@_SgI@@YAHH@Z 0041bfb0 f   stlport_vc6_static:fstream.obj
 0001:0001aff0       ?__is_regular_file@_SgI@@YA_NPAX@Z 0041bff0 f   stlport_vc6_static:fstream.obj
 0001:0001b010       ?__file_size@_SgI@@YAJPAX@Z 0041c010 f   stlport_vc6_static:fstream.obj
 0001:0001b050       ?_get_osfflags@_SgI@@YAHHPAX@Z 0041c050 f   stlport_vc6_static:fstream.obj
 0001:0001b0a0       ??0_Filebuf_base@_STL@@QAE@XZ 0041c0a0 f   stlport_vc6_static:fstream.obj
 0001:0001b100       ?_M_file_size@_Filebuf_base@_STL@@QAEJXZ 0041c100 f   stlport_vc6_static:fstream.obj
 0001:0001b110       ?_M_open@_Filebuf_base@_STL@@QAE_NPBDHJ@Z 0041c110 f   stlport_vc6_static:fstream.obj
 0001:0001b250       ?_M_open@_Filebuf_base@_STL@@QAE_NPBDH@Z 0041c250 f   stlport_vc6_static:fstream.obj
 0001:0001b270       ?_M_open@_Filebuf_base@_STL@@QAE_NHH@Z 0041c270 f   stlport_vc6_static:fstream.obj
 0001:0001b2e0       ?_M_close@_Filebuf_base@_STL@@QAE_NXZ 0041c2e0 f   stlport_vc6_static:fstream.obj
 0001:0001b340       ?_M_read@_Filebuf_base@_STL@@QAEHPADH@Z 0041c340 f   stlport_vc6_static:fstream.obj
 0001:0001b440       ?_M_write@_Filebuf_base@_STL@@QAE_NPADH@Z 0041c440 f   stlport_vc6_static:fstream.obj
 0001:0001b600       ?_M_seek@_Filebuf_base@_STL@@QAEJJH@Z 0041c600 f   stlport_vc6_static:fstream.obj
 0001:0001b6b0       ?_M_mmap@_Filebuf_base@_STL@@QAEPAXJJ@Z 0041c6b0 f   stlport_vc6_static:fstream.obj
 0001:0001b720       ?_M_unmap@_Filebuf_base@_STL@@QAEXPAXJ@Z 0041c720 f   stlport_vc6_static:fstream.obj
 0001:0001b750       ?_M_doit@?$_Underflow@DV?$char_traits@D@_STL@@@_STL@@SAHPAV?$basic_filebuf@DV?$char_traits@D@_STL@@@2@@Z 0041c750 f   stlport_vc6_static:fstream.obj
 0001:0001ba70       ?_M_do_noconv_input@?$basic_filebuf@DV?$char_traits@D@_STL@@@_STL@@QAEHXZ 0041ca70 f i stlport_vc6_static:fstream.obj
 0001:0001baa0       ??1?$basic_streambuf@DV?$char_traits@D@_STL@@@_STL@@UAE@XZ 0041caa0 f   stlport_vc6_static:streambuf.obj
 0001:0001bab0       ??0?$basic_streambuf@DV?$char_traits@D@_STL@@@_STL@@IAE@PAU_iobuf@@0@Z 0041cab0 f   stlport_vc6_static:streambuf.obj
 0001:0001bb20       ?setbuf@?$basic_streambuf@DV?$char_traits@D@_STL@@@_STL@@MAEPAV12@PADH@Z 0041cb20 f   stlport_vc6_static:streambuf.obj
 0001:0001bb30       ?seekpos@?$basic_streambuf@DV?$char_traits@D@_STL@@@_STL@@MAE?AV?$fpos@H@2@V32@H@Z 0041cb30 f   stlport_vc6_static:streambuf.obj
 0001:0001bb30       ?seekoff@?$basic_streambuf@DV?$char_traits@D@_STL@@@_STL@@MAE?AV?$fpos@H@2@JHH@Z 0041cb30 f   stlport_vc6_static:streambuf.obj
 0001:0001bb50       ?xsgetn@?$basic_streambuf@DV?$char_traits@D@_STL@@@_STL@@MAEHPADH@Z 0041cb50 f   stlport_vc6_static:streambuf.obj
 0001:0001bbf0       ?uflow@?$basic_streambuf@DV?$char_traits@D@_STL@@@_STL@@MAEHXZ 0041cbf0 f   stlport_vc6_static:streambuf.obj
 0001:0001bc20       ?overflow@?$basic_streambuf@DV?$char_traits@D@_STL@@@_STL@@MAEHH@Z 0041cc20 f   stlport_vc6_static:streambuf.obj
 0001:0001bc20       ?pbackfail@?$basic_streambuf@DV?$char_traits@D@_STL@@@_STL@@MAEHH@Z 0041cc20 f   stlport_vc6_static:streambuf.obj
 0001:0001bc30       ?xsputn@?$basic_streambuf@DV?$char_traits@D@_STL@@@_STL@@MAEHPBDH@Z 0041cc30 f   stlport_vc6_static:streambuf.obj
 0001:0001bce0       ?_M_xsputnc@?$basic_streambuf@DV?$char_traits@D@_STL@@@_STL@@MAEHDH@Z 0041cce0 f   stlport_vc6_static:streambuf.obj
 0001:0001bda0       ?pubimbue@?$basic_streambuf@DV?$char_traits@D@_STL@@@_STL@@QAE?AVlocale@2@ABV32@@Z 0041cda0 f   stlport_vc6_static:streambuf.obj
 0001:0001be30       ??0?$ctype@D@_STL@@QAE@PBW4mask@ctype_base@1@_NI@Z 0041ce30 f   stlport_vc6_static:ctype.obj
 0001:0001be80       ??_G?$ctype@D@_STL@@MAEPAXI@Z 0041ce80 f i stlport_vc6_static:ctype.obj
 0001:0001be80       ??_E?$ctype@D@_STL@@MAEPAXI@Z 0041ce80 f i stlport_vc6_static:ctype.obj
 0001:0001bea0       ??1?$ctype@D@_STL@@MAE@XZ  0041cea0 f   stlport_vc6_static:ctype.obj
 0001:0001bed0       ?scan_not@?$ctype@D@_STL@@QBEPBDW4mask@ctype_base@2@PBD1@Z 0041ced0 f   stlport_vc6_static:ctype.obj
 0001:0001bf50       ?do_toupper@?$ctype@D@_STL@@MBEDD@Z 0041cf50 f   stlport_vc6_static:ctype.obj
 0001:0001bf70       ?do_tolower@?$ctype@D@_STL@@MBEDD@Z 0041cf70 f   stlport_vc6_static:ctype.obj
 0001:0001bf90       ?do_toupper@?$ctype@D@_STL@@MBEPBDPADPBD@Z 0041cf90 f   stlport_vc6_static:ctype.obj
 0001:0001bfc0       ?do_tolower@?$ctype@D@_STL@@MBEPBDPADPBD@Z 0041cfc0 f   stlport_vc6_static:ctype.obj
 0001:0001bff0       ?do_widen@?$ctype@D@_STL@@MBEDD@Z 0041cff0 f   stlport_vc6_static:ctype.obj
 0001:0001c000       ?do_widen@?$ctype@D@_STL@@MBEPBDPBD0PAD@Z 0041d000 f   stlport_vc6_static:ctype.obj
 0001:0001c030       ?do_narrow@?$ctype@D@_STL@@MBEDDD@Z 0041d030 f   stlport_vc6_static:ctype.obj
 0001:0001c040       ?do_narrow@?$ctype@D@_STL@@MBEPBDPBD0DPAD@Z 0041d040 f   stlport_vc6_static:ctype.obj
 0001:0001c070       ??1?$ctype@G@_STL@@MAE@XZ  0041d070 f   stlport_vc6_static:ctype.obj
 0001:0001c080       ?do_is@?$ctype@G@_STL@@MBE_NW4mask@ctype_base@2@G@Z 0041d080 f   stlport_vc6_static:ctype.obj
 0001:0001c0b0       ?do_is@?$ctype@G@_STL@@MBEPBGPBG0PAW4mask@ctype_base@2@@Z 0041d0b0 f   stlport_vc6_static:ctype.obj
 0001:0001c0f0       ?do_scan_is@?$ctype@G@_STL@@MBEPBGW4mask@ctype_base@2@PBG1@Z 0041d0f0 f   stlport_vc6_static:ctype.obj
 0001:0001c200       ?do_scan_not@?$ctype@G@_STL@@MBEPBGW4mask@ctype_base@2@PBG1@Z 0041d200 f   stlport_vc6_static:ctype.obj
 0001:0001c320       ?do_toupper@?$ctype@G@_STL@@MBEGG@Z 0041d320 f   stlport_vc6_static:ctype.obj
 0001:0001c340       ?do_toupper@?$ctype@G@_STL@@MBEPBGPAGPBG@Z 0041d340 f   stlport_vc6_static:ctype.obj
 0001:0001c380       ?do_tolower@?$ctype@G@_STL@@MBEGG@Z 0041d380 f   stlport_vc6_static:ctype.obj
 0001:0001c3a0       ?do_tolower@?$ctype@G@_STL@@MBEPBGPAGPBG@Z 0041d3a0 f   stlport_vc6_static:ctype.obj
 0001:0001c3e0       ?do_widen@?$ctype@G@_STL@@MBEGD@Z 0041d3e0 f   stlport_vc6_static:ctype.obj
 0001:0001c3f0       ?do_widen@?$ctype@G@_STL@@MBEPBDPBD0PAG@Z 0041d3f0 f   stlport_vc6_static:ctype.obj
 0001:0001c420       ?do_narrow@?$ctype@G@_STL@@MBEDGD@Z 0041d420 f   stlport_vc6_static:ctype.obj
 0001:0001c440       ?do_narrow@?$ctype@G@_STL@@MBEPBGPBG0DPAD@Z 0041d440 f   stlport_vc6_static:ctype.obj
 0001:0001c480       ??0?$messages@D@_STL@@QAE@PAV_Messages@1@@Z 0041d480 f   stlport_vc6_static:messages.obj
 0001:0001c4b0       ??_G?$messages@D@_STL@@MAEPAXI@Z 0041d4b0 f i stlport_vc6_static:messages.obj
 0001:0001c4b0       ??_E?$messages@D@_STL@@MAEPAXI@Z 0041d4b0 f i stlport_vc6_static:messages.obj
 0001:0001c4d0       ??1?$messages@D@_STL@@MAE@XZ 0041d4d0 f   stlport_vc6_static:messages.obj
 0001:0001c540       ?do_get@?$messages@D@_STL@@MBE?AV?$basic_string@DV?$char_traits@D@_STL@@V?$allocator@D@2@@2@HHHABV32@@Z 0041d540 f   stlport_vc6_static:messages.obj
 0001:0001c580       ??0_Messages@_STL@@QAE@XZ  0041d580 f   stlport_vc6_static:messages.obj
 0001:0001c590       ??_E_Messages@_STL@@UAEPAXI@Z 0041d590 f i stlport_vc6_static:messages.obj
 0001:0001c590       ??_G_Messages@_STL@@UAEPAXI@Z 0041d590 f i stlport_vc6_static:messages.obj
 0001:0001c5b0       ??1_Messages@_STL@@UAE@XZ  0041d5b0 f   stlport_vc6_static:messages.obj
 0001:0001c5c0       ?do_open@_Messages@_STL@@UBEHABV?$basic_string@DV?$char_traits@D@_STL@@V?$allocator@D@2@@2@ABVlocale@2@@Z 0041d5c0 f   stlport_vc6_static:messages.obj
 0001:0001c5d0       ?do_get@_Messages@_STL@@UBE?AV?$basic_string@DV?$char_traits@D@_STL@@V?$allocator@D@2@@2@HHHABV32@@Z 0041d5d0 f   stlport_vc6_static:messages.obj
 0001:0001c6a0       ?do_close@_Messages@_STL@@UBEXH@Z 0041d6a0 f   stlport_vc6_static:messages.obj
 0001:0001c6a0       ?imbue@?$basic_streambuf@DV?$char_traits@D@_STL@@@_STL@@MAEXABVlocale@2@@Z 0041d6a0 f   stlport_vc6_static:messages.obj
 0001:0001c6b0       ??0?$messages@G@_STL@@QAE@PAV_Messages@1@@Z 0041d6b0 f   stlport_vc6_static:messages.obj
 0001:0001c6e0       ??_E?$messages@G@_STL@@MAEPAXI@Z 0041d6e0 f i stlport_vc6_static:messages.obj
 0001:0001c6e0       ??_G?$messages@G@_STL@@MAEPAXI@Z 0041d6e0 f i stlport_vc6_static:messages.obj
 0001:0001c700       ??1?$messages@G@_STL@@MAE@XZ 0041d700 f   stlport_vc6_static:messages.obj
 0001:0001c770       ?do_open@?$messages@G@_STL@@MBEHABV?$basic_string@DV?$char_traits@D@_STL@@V?$allocator@D@2@@2@ABVlocale@2@@Z 0041d770 f   stlport_vc6_static:messages.obj
 0001:0001c770       ?do_open@?$messages@D@_STL@@MBEHABV?$basic_string@DV?$char_traits@D@_STL@@V?$allocator@D@2@@2@ABVlocale@2@@Z 0041d770 f   stlport_vc6_static:messages.obj
 0001:0001c790       ?do_get@?$messages@G@_STL@@MBE?AV?$basic_string@GV?$char_traits@G@_STL@@V?$allocator@G@2@@2@HHHABV32@@Z 0041d790 f   stlport_vc6_static:messages.obj
 0001:0001c7d0       ?do_close@?$messages@D@_STL@@MBEXH@Z 0041d7d0 f   stlport_vc6_static:messages.obj
 0001:0001c7d0       ?do_close@?$messages@G@_STL@@MBEXH@Z 0041d7d0 f   stlport_vc6_static:messages.obj
 0001:0001c7e0       ?do_get@_Messages@_STL@@UBE?AV?$basic_string@GV?$char_traits@G@_STL@@V?$allocator@G@2@@2@HHHABV32@@Z 0041d7e0 f   stlport_vc6_static:messages.obj
 0001:0001c8b0       ??1?$collate@D@_STL@@MAE@XZ 0041d8b0 f   stlport_vc6_static:collate.obj
 0001:0001c8c0       ?do_compare@?$collate@D@_STL@@MBEHPBD000@Z 0041d8c0 f   stlport_vc6_static:collate.obj
 0001:0001c920       ?do_transform@?$collate@D@_STL@@MBE?AV?$basic_string@DV?$char_traits@D@_STL@@V?$allocator@D@2@@2@PBD0@Z 0041d920 f   stlport_vc6_static:collate.obj
 0001:0001c9e0       ?do_hash@?$collate@D@_STL@@MBEJPBD0@Z 0041d9e0 f   stlport_vc6_static:collate.obj
 0001:0001ca00       ??1?$collate@G@_STL@@MAE@XZ 0041da00 f   stlport_vc6_static:collate.obj
 0001:0001ca10       ?do_compare@?$collate@G@_STL@@MBEHPBG000@Z 0041da10 f   stlport_vc6_static:collate.obj
 0001:0001ca70       ?do_transform@?$collate@G@_STL@@MBE?AV?$basic_string@GV?$char_traits@G@_STL@@V?$allocator@G@2@@2@PBG0@Z 0041da70 f   stlport_vc6_static:collate.obj
 0001:0001cb40       ?do_hash@?$collate@G@_STL@@MBEJPBG0@Z 0041db40 f   stlport_vc6_static:collate.obj
 0001:0001cb70       ?do_decimal_point@?$numpunct@D@_STL@@UBEDXZ 0041db70 f   stlport_vc6_static:numpunct.obj
 0001:0001cb80       ?do_thousands_sep@?$numpunct@D@_STL@@UBEDXZ 0041db80 f   stlport_vc6_static:numpunct.obj
 0001:0001cb90       ?do_grouping@?$numpunct@D@_STL@@UBE?AV?$basic_string@DV?$char_traits@D@_STL@@V?$allocator@D@2@@2@XZ 0041db90 f   stlport_vc6_static:numpunct.obj
 0001:0001cc60       ?do_truename@?$numpunct@D@_STL@@UBE?AV?$basic_string@DV?$char_traits@D@_STL@@V?$allocator@D@2@@2@XZ 0041dc60 f   stlport_vc6_static:numpunct.obj
 0001:0001cd40       ?do_falsename@?$numpunct@D@_STL@@UBE?AV?$basic_string@DV?$char_traits@D@_STL@@V?$allocator@D@2@@2@XZ 0041dd40 f   stlport_vc6_static:numpunct.obj
 0001:0001ce20       ??1?$numpunct@D@_STL@@UAE@XZ 0041de20 f   stlport_vc6_static:numpunct.obj
 0001:0001d190       ??1?$numpunct@G@_STL@@MAE@XZ 0041e190 f   stlport_vc6_static:numpunct.obj
 0001:0001d1a0       ?do_decimal_point@?$numpunct@G@_STL@@MBEGXZ 0041e1a0 f   stlport_vc6_static:numpunct.obj
 0001:0001d1b0       ?do_thousands_sep@?$numpunct@G@_STL@@MBEGXZ 0041e1b0 f   stlport_vc6_static:numpunct.obj
 0001:0001d1c0       ?do_grouping@?$numpunct@G@_STL@@MBE?AV?$basic_string@DV?$char_traits@D@_STL@@V?$allocator@D@2@@2@XZ 0041e1c0 f   stlport_vc6_static:numpunct.obj
 0001:0001d290       ?do_truename@?$numpunct@G@_STL@@MBE?AV?$basic_string@GV?$char_traits@G@_STL@@V?$allocator@G@2@@2@XZ 0041e290 f   stlport_vc6_static:numpunct.obj
 0001:0001d360       ?do_falsename@?$numpunct@G@_STL@@MBE?AV?$basic_string@GV?$char_traits@G@_STL@@V?$allocator@G@2@@2@XZ 0041e360 f   stlport_vc6_static:numpunct.obj
 0001:0001d790       ??1?$codecvt@DDH@_STL@@MAE@XZ 0041e790 f   stlport_vc6_static:codecvt.obj
 0001:0001d7a0       ?do_length@?$codecvt@DDH@_STL@@MBEHABHPBD1I@Z 0041e7a0 f   stlport_vc6_static:codecvt.obj
 0001:0001d7a0       ?do_length@?$codecvt@GDH@_STL@@MBEHABHPBD1I@Z 0041e7a0 f   stlport_vc6_static:codecvt.obj
 0001:0001d7d0       ?do_unshift@?$codecvt@DDH@_STL@@MBE?AW4result@codecvt_base@2@AAHPAD1AAPAD@Z 0041e7d0 f   stlport_vc6_static:codecvt.obj
 0001:0001d7d0       ?do_unshift@?$codecvt@GDH@_STL@@MBE?AW4result@codecvt_base@2@AAHPAD1AAPAD@Z 0041e7d0 f   stlport_vc6_static:codecvt.obj
 0001:0001d7f0       ?do_out@?$codecvt@DDH@_STL@@MBE?AW4result@codecvt_base@2@AAHPBD1AAPBDPAD3AAPAD@Z 0041e7f0 f   stlport_vc6_static:codecvt.obj
 0001:0001d7f0       ?do_in@?$codecvt@DDH@_STL@@MBE?AW4result@codecvt_base@2@AAHPBD1AAPBDPAD3AAPAD@Z 0041e7f0 f   stlport_vc6_static:codecvt.obj
 0001:0001d810       ??1?$codecvt@GDH@_STL@@MAE@XZ 0041e810 f   stlport_vc6_static:codecvt.obj
 0001:0001d820       ?do_out@?$codecvt@GDH@_STL@@MBE?AW4result@codecvt_base@2@AAHPBG1AAPBGPAD3AAPAD@Z 0041e820 f   stlport_vc6_static:codecvt.obj
 0001:0001d890       ?do_in@?$codecvt@GDH@_STL@@MBE?AW4result@codecvt_base@2@AAHPBD1AAPBDPAG3AAPAG@Z 0041e890 f   stlport_vc6_static:codecvt.obj
 0001:0001d900       ?do_always_noconv@?$codecvt@DDH@_STL@@MBE_NXZ 0041e900 f   stlport_vc6_static:codecvt.obj
 0001:0001d900       ?do_always_noconv@?$codecvt@GDH@_STL@@MBE_NXZ 0041e900 f   stlport_vc6_static:codecvt.obj
 0001:0001d910       ?do_encoding@?$codecvt@DDH@_STL@@MBEHXZ 0041e910 f   stlport_vc6_static:codecvt.obj
 0001:0001d910       ?do_max_length@?$codecvt@GDH@_STL@@MBEHXZ 0041e910 f   stlport_vc6_static:codecvt.obj
 0001:0001d910       ?do_encoding@?$codecvt@GDH@_STL@@MBEHXZ 0041e910 f   stlport_vc6_static:codecvt.obj
 0001:0001d910       ?do_max_length@?$codecvt@DDH@_STL@@MBEHXZ 0041e910 f   stlport_vc6_static:codecvt.obj
 0001:0001db40       ??0?$moneypunct@D$00@_STL@@QAE@I@Z 0041eb40 f   stlport_vc6_static:monetary.obj
 0001:0001dbe0       ??_E?$moneypunct@D$00@_STL@@MAEPAXI@Z 0041ebe0 f i stlport_vc6_static:monetary.obj
 0001:0001dbe0       ??_G?$moneypunct@D$00@_STL@@MAEPAXI@Z 0041ebe0 f i stlport_vc6_static:monetary.obj
 0001:0001dc00       ??1?$moneypunct@D$00@_STL@@MAE@XZ 0041ec00 f   stlport_vc6_static:monetary.obj
 0001:0001dc10       ?do_thousands_sep@?$moneypunct@D$0A@@_STL@@MBEDXZ 0041ec10 f   stlport_vc6_static:monetary.obj
 0001:0001dc10       ?do_decimal_point@?$moneypunct@D$00@_STL@@MBEDXZ 0041ec10 f   stlport_vc6_static:monetary.obj
 0001:0001dc10       ?do_thousands_sep@?$moneypunct@D$00@_STL@@MBEDXZ 0041ec10 f   stlport_vc6_static:monetary.obj
 0001:0001dc10       ?do_decimal_point@?$moneypunct@D$0A@@_STL@@MBEDXZ 0041ec10 f   stlport_vc6_static:monetary.obj
 0001:0001dc20       ?do_grouping@?$moneypunct@D$00@_STL@@MBE?AV?$basic_string@DV?$char_traits@D@_STL@@V?$allocator@D@2@@2@XZ 0041ec20 f   stlport_vc6_static:monetary.obj
 0001:0001dd00       ?do_curr_symbol@?$moneypunct@D$00@_STL@@MBE?AV?$basic_string@DV?$char_traits@D@_STL@@V?$allocator@D@2@@2@XZ 0041ed00 f   stlport_vc6_static:monetary.obj
 0001:0001dde0       ?do_positive_sign@?$moneypunct@D$00@_STL@@MBE?AV?$basic_string@DV?$char_traits@D@_STL@@V?$allocator@D@2@@2@XZ 0041ede0 f   stlport_vc6_static:monetary.obj
 0001:0001dec0       ?do_negative_sign@?$moneypunct@D$00@_STL@@MBE?AV?$basic_string@DV?$char_traits@D@_STL@@V?$allocator@D@2@@2@XZ 0041eec0 f   stlport_vc6_static:monetary.obj
 0001:0001dfa0       ?do_pos_format@?$moneypunct@G$00@_STL@@MBE?AUpattern@money_base@2@XZ 0041efa0 f   stlport_vc6_static:monetary.obj
 0001:0001dfa0       ?do_pos_format@?$moneypunct@D$00@_STL@@MBE?AUpattern@money_base@2@XZ 0041efa0 f   stlport_vc6_static:monetary.obj
 0001:0001dfa0       ?do_pos_format@?$moneypunct@G$0A@@_STL@@MBE?AUpattern@money_base@2@XZ 0041efa0 f   stlport_vc6_static:monetary.obj
 0001:0001dfa0       ?do_pos_format@?$moneypunct@D$0A@@_STL@@MBE?AUpattern@money_base@2@XZ 0041efa0 f   stlport_vc6_static:monetary.obj
 0001:0001dfb0       ?do_neg_format@?$moneypunct@D$00@_STL@@MBE?AUpattern@money_base@2@XZ 0041efb0 f   stlport_vc6_static:monetary.obj
 0001:0001dfb0       ?do_neg_format@?$moneypunct@G$00@_STL@@MBE?AUpattern@money_base@2@XZ 0041efb0 f   stlport_vc6_static:monetary.obj
 0001:0001dfb0       ?do_neg_format@?$moneypunct@G$0A@@_STL@@MBE?AUpattern@money_base@2@XZ 0041efb0 f   stlport_vc6_static:monetary.obj
 0001:0001dfb0       ?do_neg_format@?$moneypunct@D$0A@@_STL@@MBE?AUpattern@money_base@2@XZ 0041efb0 f   stlport_vc6_static:monetary.obj
 0001:0001dfc0       ?do_frac_digits@?$moneypunct@G$0A@@_STL@@MBEHXZ 0041efc0 f   stlport_vc6_static:monetary.obj
 0001:0001dfc0       ?showmanyc@?$basic_streambuf@DV?$char_traits@D@_STL@@@_STL@@MAEHXZ 0041efc0 f   stlport_vc6_static:monetary.obj
 0001:0001dfc0       ?do_frac_digits@?$moneypunct@G$00@_STL@@MBEHXZ 0041efc0 f   stlport_vc6_static:monetary.obj
 0001:0001dfc0       ?do_frac_digits@?$moneypunct@D$0A@@_STL@@MBEHXZ 0041efc0 f   stlport_vc6_static:monetary.obj
 0001:0001dfc0       ?sync@?$basic_streambuf@DV?$char_traits@D@_STL@@@_STL@@MAEHXZ 0041efc0 f   stlport_vc6_static:monetary.obj
 0001:0001dfc0       ?do_frac_digits@?$moneypunct@D$00@_STL@@MBEHXZ 0041efc0 f   stlport_vc6_static:monetary.obj
 0001:0001dfd0       ??0?$moneypunct@D$0A@@_STL@@QAE@I@Z 0041efd0 f   stlport_vc6_static:monetary.obj
 0001:0001e010       ??_E?$moneypunct@D$0A@@_STL@@MAEPAXI@Z 0041f010 f i stlport_vc6_static:monetary.obj
 0001:0001e010       ??_G?$moneypunct@D$0A@@_STL@@MAEPAXI@Z 0041f010 f i stlport_vc6_static:monetary.obj
 0001:0001e030       ??1?$moneypunct@D$0A@@_STL@@MAE@XZ 0041f030 f   stlport_vc6_static:monetary.obj
 0001:0001e040       ?do_grouping@?$moneypunct@D$0A@@_STL@@MBE?AV?$basic_string@DV?$char_traits@D@_STL@@V?$allocator@D@2@@2@XZ 0041f040 f   stlport_vc6_static:monetary.obj
 0001:0001e120       ?do_curr_symbol@?$moneypunct@D$0A@@_STL@@MBE?AV?$basic_string@DV?$char_traits@D@_STL@@V?$allocator@D@2@@2@XZ 0041f120 f   stlport_vc6_static:monetary.obj
 0001:0001e200       ?do_positive_sign@?$moneypunct@D$0A@@_STL@@MBE?AV?$basic_string@DV?$char_traits@D@_STL@@V?$allocator@D@2@@2@XZ 0041f200 f   stlport_vc6_static:monetary.obj
 0001:0001e2e0       ?do_negative_sign@?$moneypunct@D$0A@@_STL@@MBE?AV?$basic_string@DV?$char_traits@D@_STL@@V?$allocator@D@2@@2@XZ 0041f2e0 f   stlport_vc6_static:monetary.obj
 0001:0001e3c0       ??0?$moneypunct@G$00@_STL@@QAE@I@Z 0041f3c0 f   stlport_vc6_static:monetary.obj
 0001:0001e400       ??_E?$moneypunct@G$00@_STL@@MAEPAXI@Z 0041f400 f i stlport_vc6_static:monetary.obj
 0001:0001e400       ??_G?$moneypunct@G$00@_STL@@MAEPAXI@Z 0041f400 f i stlport_vc6_static:monetary.obj
 0001:0001e420       ??1?$moneypunct@G$00@_STL@@MAE@XZ 0041f420 f   stlport_vc6_static:monetary.obj
 0001:0001e430       ?do_thousands_sep@?$moneypunct@G$00@_STL@@MBEGXZ 0041f430 f   stlport_vc6_static:monetary.obj
 0001:0001e430       ?do_decimal_point@?$moneypunct@G$0A@@_STL@@MBEGXZ 0041f430 f   stlport_vc6_static:monetary.obj
 0001:0001e430       ?do_thousands_sep@?$moneypunct@G$0A@@_STL@@MBEGXZ 0041f430 f   stlport_vc6_static:monetary.obj
 0001:0001e430       ?do_decimal_point@?$moneypunct@G$00@_STL@@MBEGXZ 0041f430 f   stlport_vc6_static:monetary.obj
 0001:0001e440       ?do_grouping@?$moneypunct@G$00@_STL@@MBE?AV?$basic_string@DV?$char_traits@D@_STL@@V?$allocator@D@2@@2@XZ 0041f440 f   stlport_vc6_static:monetary.obj
 0001:0001e520       ?do_curr_symbol@?$moneypunct@G$00@_STL@@MBE?AV?$basic_string@GV?$char_traits@G@_STL@@V?$allocator@G@2@@2@XZ 0041f520 f   stlport_vc6_static:monetary.obj
 0001:0001e5f0       ?do_positive_sign@?$moneypunct@G$00@_STL@@MBE?AV?$basic_string@GV?$char_traits@G@_STL@@V?$allocator@G@2@@2@XZ 0041f5f0 f   stlport_vc6_static:monetary.obj
 0001:0001e6c0       ?do_negative_sign@?$moneypunct@G$00@_STL@@MBE?AV?$basic_string@GV?$char_traits@G@_STL@@V?$allocator@G@2@@2@XZ 0041f6c0 f   stlport_vc6_static:monetary.obj
 0001:0001e790       ??0?$moneypunct@G$0A@@_STL@@QAE@I@Z 0041f790 f   stlport_vc6_static:monetary.obj
 0001:0001e7d0       ??_E?$moneypunct@G$0A@@_STL@@MAEPAXI@Z 0041f7d0 f i stlport_vc6_static:monetary.obj
 0001:0001e7d0       ??_G?$moneypunct@G$0A@@_STL@@MAEPAXI@Z 0041f7d0 f i stlport_vc6_static:monetary.obj
 0001:0001e7f0       ??1?$moneypunct@G$0A@@_STL@@MAE@XZ 0041f7f0 f   stlport_vc6_static:monetary.obj
 0001:0001e800       ?do_grouping@?$moneypunct@G$0A@@_STL@@MBE?AV?$basic_string@DV?$char_traits@D@_STL@@V?$allocator@D@2@@2@XZ 0041f800 f   stlport_vc6_static:monetary.obj
 0001:0001e8e0       ?do_curr_symbol@?$moneypunct@G$0A@@_STL@@MBE?AV?$basic_string@GV?$char_traits@G@_STL@@V?$allocator@G@2@@2@XZ 0041f8e0 f   stlport_vc6_static:monetary.obj
 0001:0001e9b0       ?do_positive_sign@?$moneypunct@G$0A@@_STL@@MBE?AV?$basic_string@GV?$char_traits@G@_STL@@V?$allocator@G@2@@2@XZ 0041f9b0 f   stlport_vc6_static:monetary.obj
 0001:0001ea80       ?do_negative_sign@?$moneypunct@G$0A@@_STL@@MBE?AV?$basic_string@GV?$char_traits@G@_STL@@V?$allocator@G@2@@2@XZ 0041fa80 f   stlport_vc6_static:monetary.obj
 0001:0001eb50       ?_Init_timeinfo@_STL@@YAXAAV_Time_Info@1@@Z 0041fb50 f   stlport_vc6_static:time_facets.obj
 0001:0001ed10       ?__write_formatted_time@_STL@@YAPADPADDDABV_Time_Info@1@PBUtm@@@Z 0041fd10 f   stlport_vc6_static:time_facets.obj
 0001:0001f2f0       ?__copy_aux@_STL@@YA?AV?$back_insert_iterator@V?$basic_string@DV?$char_traits@D@_STL@@V?$allocator@D@2@@_STL@@@1@PBD0V21@ABU__false_type@1@@Z 004202f0 f i stlport_vc6_static:time_facets.obj
 0001:0001f370       ?__copy@_STL@@YA?AV?$back_insert_iterator@V?$basic_string@DV?$char_traits@D@_STL@@V?$allocator@D@2@@_STL@@@1@PBD0V21@ABUrandom_access_iterator_tag@1@PAH@Z 00420370 f i stlport_vc6_static:time_facets.obj
 0001:0001f3f0       ?__valid_grouping@_STL@@YA_NPBD000@Z 004203f0 f   stlport_vc6_static:num_get.obj
 0001:0001f440       ?__get_fdigit@_STL@@YA_NAAGPBG@Z 00420440 f   stlport_vc6_static:num_get.obj
 0001:0001f4d0       ?__get_fdigit_or_sep@_STL@@YA_NAAGGPBG@Z 004204d0 f   stlport_vc6_static:num_get.obj
 0001:0001f500       ?__write_integer@_STL@@YAPADPADHJ@Z 00420500 f   stlport_vc6_static:num_put.obj
 0001:0001f660       ?__insert_grouping@_STL@@YAHPAD0ABV?$basic_string@DV?$char_traits@D@_STL@@V?$allocator@D@2@@1@DDDH@Z 00420660 f   stlport_vc6_static:num_put.obj
 0001:0001f720       ?__insert_grouping@_STL@@YAHPAG0ABV?$basic_string@DV?$char_traits@D@_STL@@V?$allocator@D@2@@1@GGGH@Z 00420720 f   stlport_vc6_static:num_put.obj
 0001:0001f7e0       ?_Initialize_get_float@_STL@@YAXABV?$ctype@G@1@AAG111PAG@Z 004207e0 f   stlport_vc6_static:num_get_float.obj
 0001:0001f870       ?_Stl_mult64@_STL@@YAX_K0AA_K1@Z 00420870 f   stlport_vc6_static:num_get_float.obj
 0001:0001f920       ?_Stl_norm_and_round@_STL@@YAXAA_KAAH_K2@Z 00420920 f   stlport_vc6_static:num_get_float.obj
 0001:0001fa20       ?_Stl_tenscale@_STL@@YAXAA_KHAAH@Z 00420a20 f   stlport_vc6_static:num_get_float.obj
 0001:0001fbc0       ?_Stl_atod@_STL@@YANPADHH@Z 00420bc0 f   stlport_vc6_static:num_get_float.obj
 0001:0001fe90       ?_Stl_string_to_double@_STL@@YANPBD@Z 00420e90 f   stlport_vc6_static:num_get_float.obj
 0001:00020000       ?_Stl_string_to_long_double@_STL@@YAOPBD@Z 00421000 f   stlport_vc6_static:num_get_float.obj
 0001:00020180       ?__string_to_float@_STL@@YAXABV?$basic_string@DV?$char_traits@D@_STL@@V?$allocator@D@2@@1@AAM@Z 00421180 f   stlport_vc6_static:num_get_float.obj
 0001:000201a0       ?__string_to_float@_STL@@YAXABV?$basic_string@DV?$char_traits@D@_STL@@V?$allocator@D@2@@1@AAN@Z 004211a0 f   stlport_vc6_static:num_get_float.obj
 0001:000201c0       ?__string_to_float@_STL@@YAXABV?$basic_string@DV?$char_traits@D@_STL@@V?$allocator@D@2@@1@AAO@Z 004211c0 f   stlport_vc6_static:num_get_float.obj
 0001:000201e0       ?__format_float_scientific@_STL@@YAXPADPBDHH_NHH2@Z 004211e0 f   stlport_vc6_static:num_put_float.obj
 0001:000202f0       ?__format_float_fixed@_STL@@YAXAAV?$basic_string@DV?$char_traits@D@_STL@@V?$allocator@D@2@@1@PBDHH_NHH2@Z 004212f0 f   stlport_vc6_static:num_put_float.obj
 0001:00020520       ?__format_nan_or_inf@_STL@@YAXPADNH@Z 00421520 f   stlport_vc6_static:num_put_float.obj
 0001:000205e0       ?__write_float@_STL@@YAXAAV?$basic_string@DV?$char_traits@D@_STL@@V?$allocator@D@2@@1@HHN@Z 004215e0 f   stlport_vc6_static:num_put_float.obj
 0001:00020930       ?__write_float@_STL@@YAXAAV?$basic_string@DV?$char_traits@D@_STL@@V?$allocator@D@2@@1@HHO@Z 00421930 f   stlport_vc6_static:num_put_float.obj
 0001:00020c80       ?__convert_float_buffer@_STL@@YAPAGPBD0PAGABV?$ctype@G@1@G@Z 00421c80 f   stlport_vc6_static:num_put_float.obj
 0001:00020cf0       ?__adjust_float_buffer@_STL@@YAXPAD0D@Z 00421cf0 f   stlport_vc6_static:num_put_float.obj
 0001:00020d20       ??0stdio_streambuf_base@_SgI@@QAE@PAU_iobuf@@@Z 00421d20 f   stlport_vc6_static:stdio_streambuf.obj
 0001:00020d40       ??_Gstdio_streambuf_base@_SgI@@UAEPAXI@Z 00421d40 f i stlport_vc6_static:stdio_streambuf.obj
 0001:00020d40       ??_Estdio_streambuf_base@_SgI@@UAEPAXI@Z 00421d40 f i stlport_vc6_static:stdio_streambuf.obj
 0001:00020d60       ??1stdio_streambuf_base@_SgI@@UAE@XZ 00421d60 f   stlport_vc6_static:stdio_streambuf.obj
 0001:00020d80       ?setbuf@stdio_streambuf_base@_SgI@@MAEPAV?$basic_streambuf@DV?$char_traits@D@_STL@@@_STL@@PADH@Z 00421d80 f   stlport_vc6_static:stdio_streambuf.obj
 0001:00020dc0       ?seekoff@stdio_streambuf_base@_SgI@@MAE?AV?$fpos@H@_STL@@JHH@Z 00421dc0 f   stlport_vc6_static:stdio_streambuf.obj
 0001:00020e40       ?seekpos@stdio_streambuf_base@_SgI@@MAE?AV?$fpos@H@_STL@@V34@H@Z 00421e40 f   stlport_vc6_static:stdio_streambuf.obj
 0001:00020e90       ?sync@stdio_streambuf_base@_SgI@@MAEHXZ 00421e90 f   stlport_vc6_static:stdio_streambuf.obj
 0001:00020eb0       ??1stdio_istreambuf@_SgI@@UAE@XZ 00421eb0 f   stlport_vc6_static:stdio_streambuf.obj
 0001:00020ec0       ?showmanyc@stdio_istreambuf@_SgI@@MAEHXZ 00421ec0 f   stlport_vc6_static:stdio_streambuf.obj
 0001:00020f40       ?underflow@stdio_istreambuf@_SgI@@MAEHXZ 00421f40 f   stlport_vc6_static:stdio_streambuf.obj
 0001:00020f70       ?uflow@stdio_istreambuf@_SgI@@MAEHXZ 00421f70 f   stlport_vc6_static:stdio_streambuf.obj
 0001:00020f90       ?pbackfail@stdio_istreambuf@_SgI@@MAEHH@Z 00421f90 f   stlport_vc6_static:stdio_streambuf.obj
 0001:00020fd0       ??1stdio_ostreambuf@_SgI@@UAE@XZ 00421fd0 f   stlport_vc6_static:stdio_streambuf.obj
 0001:00020fe0       ?underflow@?$basic_streambuf@DV?$char_traits@D@_STL@@@_STL@@MAEHXZ 00421fe0 f   stlport_vc6_static:stdio_streambuf.obj
 0001:00020fe0       ?showmanyc@stdio_ostreambuf@_SgI@@MAEHXZ 00421fe0 f   stlport_vc6_static:stdio_streambuf.obj
 0001:00020ff0       ?overflow@stdio_ostreambuf@_SgI@@MAEHH@Z 00421ff0 f   stlport_vc6_static:stdio_streambuf.obj
 0001:00021050       ??3@YAXPAX@Z               00422050 f   libcp:delop.obj
 0001:0002105b       _malloc                    0042205b f   LIBC:malloc.obj
 0001:0002106d       __nh_malloc                0042206d f   LIBC:malloc.obj
 0001:00021099       __heap_alloc               00422099 f   LIBC:malloc.obj
 0001:00021110       _memcpy                    00422110 f   LIBC:memcpy.obj
 0001:00021445       _free                      00422445 f   LIBC:free.obj
 0001:000214b0       _memmove                   004224b0 f   LIBC:memmove.obj
 0001:000217e5       ?_JumpToContinuation@@YGXPAXPAUEHRegistrationNode@@@Z 004227e5 f   LIBC:trnsctrl.obj
 0001:00021819       ?_CallMemberFunction1@@YGXPAX00@Z 00422819 f   LIBC:trnsctrl.obj
 0001:00021819       ?_CallMemberFunction0@@YGXPAX0@Z 00422819 f   LIBC:trnsctrl.obj
 0001:00021820       ?_CallMemberFunction2@@YGXPAX00H@Z 00422820 f   LIBC:trnsctrl.obj
 0001:00021827       ?_UnwindNestedFrames@@YGXPAUEHRegistrationNode@@PAUEHExceptionRecord@@@Z 00422827 f   LIBC:trnsctrl.obj
 0001:00021876       ___CxxFrameHandler         00422876 f   LIBC:trnsctrl.obj
 0001:000218ac       ?_CallCatchBlock2@@YAPAXPAUEHRegistrationNode@@PBU_s_FuncInfo@@PAXHK@Z 004228ac f   LIBC:trnsctrl.obj
 0001:00021925       ?_CallSETranslator@@YAHPAUEHExceptionRecord@@PAUEHRegistrationNode@@PAX2PBU_s_FuncInfo@@H1@Z 00422925 f   LIBC:trnsctrl.obj
 0001:00021a4e       ?_GetRangeOfTrysToCheck@@YAPBU_s_TryBlockMapEntry@@PBU_s_FuncInfo@@HHPAI1@Z 00422a4e f   LIBC:trnsctrl.obj
 0001:00021acc       __global_unwind2           00422acc f   LIBC:exsup.obj
 0001:00021b0e       __local_unwind2            00422b0e f   LIBC:exsup.obj
 0001:00021b66       __NLG_Return2              00422b66 f   LIBC:exsup.obj
 0001:00021b76       __abnormal_termination     00422b76 f   LIBC:exsup.obj
 0001:00021b99       __NLG_Notify1              00422b99 f   LIBC:exsup.obj
 0001:00021ba2       __NLG_Notify               00422ba2 f   LIBC:exsup.obj
 0001:00021bb5       __NLG_Dispatch             00422bb5 f   LIBC:exsup.obj
 0001:00021bbc       __EH_prolog                00422bbc f   LIBC:ehprolog.obj
 0001:00021bdb       ??2@YAPAXI@Z               00422bdb f   LIBC:new.obj
 0001:00021bf0       _memset                    00422bf0 f   LIBC:memset.obj
 0001:00021c48       ??0exception@@QAE@XZ       00422c48 f   LIBC:stdexcpt.obj
 0001:00021c59       ??_Eexception@@UAEPAXI@Z   00422c59 f i LIBC:stdexcpt.obj
 0001:00021c59       ??_Gexception@@UAEPAXI@Z   00422c59 f i LIBC:stdexcpt.obj
 0001:00021c75       ??0exception@@QAE@ABQBD@Z  00422c75 f   LIBC:stdexcpt.obj
 0001:00021cb2       ??0exception@@QAE@ABV0@@Z  00422cb2 f   LIBC:stdexcpt.obj
 0001:00021cfc       ??1exception@@UAE@XZ       00422cfc f   LIBC:stdexcpt.obj
 0001:00021d12       ?what@exception@@UBEPBDXZ  00422d12 f   LIBC:stdexcpt.obj
 0001:00021d1f       ??1type_info@@UAE@XZ       00422d1f f   LIBC:typinfo.obj
 0001:00021d34       ??_Gtype_info@@UAEPAXI@Z   00422d34 f i LIBC:typinfo.obj
 0001:00021d34       ??_Etype_info@@UAEPAXI@Z   00422d34 f i LIBC:typinfo.obj
 0001:00021d50       _fclose                    00422d50 f   LIBC:fclose.obj
 0001:00021db0       _strcpy                    00422db0 f   LIBC:strcat.obj
 0001:00021dc0       _strcat                    00422dc0 f   LIBC:strcat.obj
 0001:00021ea0       _atol                      00422ea0 f   LIBC:atox.obj
 0001:00021f2b       _atoi                      00422f2b f   LIBC:atox.obj
 0001:00021f36       _atof                      00422f36 f   LIBC:atof.obj
 0001:00021f83       _strtok                    00422f83 f   LIBC:strtok.obj
 0001:00022020       _strncmp                   00423020 f   LIBC:strncmp.obj
 0001:00022060       _strlen                    00423060 f   LIBC:strlen.obj
 0001:000220e0       _strcmp                    004230e0 f   LIBC:strcmp.obj
 0001:00022164       _fgets                     00423164 f   LIBC:fgets.obj
 0001:000221bb       _printf                    004231bb f   LIBC:printf.obj
 0001:000221ec       __fsopen                   004231ec f   LIBC:fopen.obj
 0001:0002220c       _fopen                     0042320c f   LIBC:fopen.obj
 0001:0002221f       __fpmath                   0042321f f   LIBC:fpinit.obj
 0001:00022236       __fpclear                  00423236 f   LIBC:fpinit.obj
 0001:00022237       __cfltcvt_init             00423237 f   LIBC:fpinit.obj
 0001:0002226f       __CxxThrowException@8      0042326f f   LIBC:throw.obj
 0001:000222a9       _sprintf                   004232a9 f   LIBC:sprintf.obj
 0001:000222fb       _fprintf                   004232fb f   LIBC:fprintf.obj
 0001:00022330       __chkstk                   00423330 f   LIBC:chkstk.obj
 0001:00022330       __alloca_probe             00423330 f   LIBC:chkstk.obj
 0001:0002235f       __onexit                   0042335f f   LIBC:onexit.obj
 0001:000223cc       _atexit                    004233cc f   LIBC:onexit.obj
 0001:000223de       ___onexitinit              004233de f   LIBC:onexit.obj
 0001:0002240d       ___initstdio               0042340d f   LIBC:_file.obj
 0001:000224b2       ___endstdio                004234b2 f   LIBC:_file.obj
 0001:000224d0       _strstr                    004234d0 f   LIBC:strstr.obj
 0001:00022550       _strncpy                   00423550 f   LIBC:strncpy.obj
 0001:0002264e       ?name@type_info@@QBEPBDXZ  0042364e f   LIBC:typname.obj
 0001:000226b3       ??0__non_rtti_object@@QAE@PBD@Z 004236b3 f i LIBC:rtti.obj
 0001:000226d5       ??1__non_rtti_object@@UAE@XZ 004236d5 f i LIBC:rtti.obj
 0001:000226d5       ??1bad_typeid@@UAE@XZ      004236d5 f i LIBC:rtti.obj
 0001:000226da       ??0__non_rtti_object@@QAE@ABV0@@Z 004236da f i LIBC:rtti.obj
 0001:000226f2       ??0bad_typeid@@QAE@ABV0@@Z 004236f2 f i LIBC:rtti.obj
 0001:0002270a       ??_G__non_rtti_object@@UAEPAXI@Z 0042370a f i LIBC:rtti.obj
 0001:0002270a       ??_Ebad_typeid@@UAEPAXI@Z  0042370a f i LIBC:rtti.obj
 0001:0002270a       ??_Gbad_typeid@@UAEPAXI@Z  0042370a f i LIBC:rtti.obj
 0001:0002270a       ??_E__non_rtti_object@@UAEPAXI@Z 0042370a f i LIBC:rtti.obj
 0001:00022726       ___RTtypeid                00423726 f   LIBC:rtti.obj
 0001:000227ec       ??0bad_typeid@@QAE@PBD@Z   004237ec f i LIBC:rtti.obj
 0001:00022805       _mainCRTStartup            00423805 f   LIBC:crt0.obj
 0001:000228e4       __amsg_exit                004238e4 f   LIBC:crt0.obj
 0001:0002292d       _abort                     0042392d f   LIBC:abort.obj
 0001:00022950       _strncat                   00423950 f   LIBC:strncat.obj
 0001:00022a73       ??_M@YGXPAXIHP6EX0@Z@Z     00423a73 f   LIBC:ehvecdtr.obj
 0001:00022af3       ?__ArrayUnwind@@YGXPAXIHP6EX0@Z@Z 00423af3 f   LIBC:ehvecdtr.obj
 0001:00022b51       ??_L@YGXPAXIHP6EX0@Z1@Z    00423b51 f   LIBC:ehvecctr.obj
 0001:00022be0       __allmul                   00423be0 f   LIBC:llmul.obj
 0001:00022c20       __aulldiv                  00423c20 f   LIBC:ulldiv.obj
 0001:00022c90       __alldiv                   00423c90 f   LIBC:lldiv.obj
 0001:00022d40       __aullshr                  00423d40 f   LIBC:ullshr.obj
 0001:00022d60       __aullrem                  00423d60 f   LIBC:ullrem.obj
 0001:00022dd5       _realloc                   00423dd5 f   LIBC:realloc.obj
 0001:00023075       __ioinit                   00424075 f   LIBC:ioinit.obj
 0001:00023220       __alloc_osfhnd             00424220 f   LIBC:osfinfo.obj
 0001:000232b5       __set_osfhnd               004242b5 f   LIBC:osfinfo.obj
 0001:0002332c       __free_osfhnd              0042432c f   LIBC:osfinfo.obj
 0001:000233a6       __get_osfhandle            004243a6 f   LIBC:osfinfo.obj
 0001:000233f0       _memchr                    004243f0 f   LIBC:memchr.obj
 0001:000234a0       __allshl                   004244a0 f   LIBC:llshl.obj
 0001:000234bf       __copysign                 004244bf f   LIBC:ieeemisc.obj
 0001:000234e0       __finite                   004244e0 f   LIBC:ieeemisc.obj
 0001:000234f4       __isnan                    004244f4 f   LIBC:ieeemisc.obj
 0001:00023522       __fpclass                  00424522 f   LIBC:ieeemisc.obj
 0001:000235b4       __fcvt                     004245b4 f   LIBC:fcvt.obj
 0001:000235dc       __ecvt                     004245dc f   LIBC:fcvt.obj
 0001:00023650       _fflush                    00424650 f   LIBC:fflush.obj
 0001:0002368b       __flush                    0042468b f   LIBC:fflush.obj
 0001:000236e7       __flushall                 004246e7 f   LIBC:fflush.obj
 0001:0002375d       _setvbuf                   0042475d f   LIBC:setvbuf.obj
 0001:000237fe       _fgetpos                   004247fe f   LIBC:fgetpos.obj
 0001:00023820       _fseek                     00424820 f   LIBC:fseek.obj
 0001:000238ac       _fsetpos                   004248ac f   LIBC:fsetpos.obj
 0001:000238c4       _ftell                     004248c4 f   LIBC:ftell.obj
 0001:00023a1c       _feof                      00424a1c f   LIBC:feoferr.obj
 0001:00023a27       _ungetc                    00424a27 f   LIBC:ungetc.obj
 0001:00023a95       _fgetc                     00424a95 f   LIBC:fgetc.obj
 0001:00023aaf       _getc                      00424aaf f   LIBC:fgetc.obj
 0001:00023aba       _fputc                     00424aba f   LIBC:fputc.obj
 0001:00023ade       _putc                      00424ade f   LIBC:fputc.obj
 0001:00023af0       _strcspn                   00424af0 f   LIBC:strcspn.obj
 0001:00023b40       _strchr                    00424b40 f   LIBC:strchr.obj
 0001:00023b46       ___from_strstr_to_strchr   00424b46 f   LIBC:strchr.obj
 0001:00023bfc       __callnewh                 00424bfc f   LIBC:handler.obj
 0001:00023c17       __GetLinkerVersion         00424c17 f   LIBC:heapinit.obj
 0001:00023c44       ___heap_select             00424c44 f   LIBC:heapinit.obj
 0001:00023d8c       __heap_init                00424d8c f   LIBC:heapinit.obj
 0001:00023de9       ___sbh_heap_init           00424de9 f   LIBC:sbheap.obj
 0001:00023e31       ___sbh_find_block          00424e31 f   LIBC:sbheap.obj
 0001:00023e5c       ___sbh_free_block          00424e5c f   LIBC:sbheap.obj
 0001:00024185       ___sbh_alloc_block         00425185 f   LIBC:sbheap.obj
 0001:0002448e       ___sbh_alloc_new_region    0042548e f   LIBC:sbheap.obj
 0001:0002453f       ___sbh_alloc_new_group     0042553f f   LIBC:sbheap.obj
 0001:0002463a       ___sbh_resize_block        0042563a f   LIBC:sbheap.obj
 0001:00024930       ___old_sbh_new_region      00425930 f   LIBC:sbheap.obj
 0001:00024a74       ___old_sbh_release_region  00425a74 f   LIBC:sbheap.obj
 0001:00024aca       ___old_sbh_decommit_pages  00425aca f   LIBC:sbheap.obj
 0001:00024b8c       ___old_sbh_find_block      00425b8c f   LIBC:sbheap.obj
 0001:00024be3       ___old_sbh_free_block      00425be3 f   LIBC:sbheap.obj
 0001:00024c28       ___old_sbh_alloc_block     00425c28 f   LIBC:sbheap.obj
 0001:00024e30       ___old_sbh_alloc_block_from_page 00425e30 f   LIBC:sbheap.obj
 0001:00024f54       ___old_sbh_resize_block    00425f54 f   LIBC:sbheap.obj
 0001:00024ffd       ___InternalCxxFrameHandler 00425ffd f   LIBC:frame.obj
 0001:00025344       ___FrameUnwindToState      00426344 f   LIBC:frame.obj
 0001:0002576d       ?_DestructExceptionObject@@YAXPAUEHExceptionRecord@@E@Z 0042676d f   LIBC:frame.obj
 0001:00025800       __CallSettingFrame@12      00426800 f   LIBC:lowhelpr.obj
 0001:00025827       __NLG_Return               00426827 f   LIBC:lowhelpr.obj
 0001:0002584c       ?terminate@@YAXXZ          0042684c f   LIBC:hooks.obj
 0001:000258a2       ?_inconsistency@@YAXXZ     004268a2 f   LIBC:hooks.obj
 0001:000258f8       __close                    004268f8 f   LIBC:close.obj
 0001:000259ab       __freebuf                  004269ab f   LIBC:_freebuf.obj
 0001:000259d6       __isctype                  004269d6 f   LIBC:isctype.obj
 0001:00025a4b       __fltin                    00426a4b f   LIBC:cfin.obj
 0001:00025adc       __filbuf                   00426adc f   LIBC:_filbuf.obj
 0001:00025bb5       __stbuf                    00426bb5 f   LIBC:_sftbuf.obj
 0001:00025c42       __ftbuf                    00426c42 f   LIBC:_sftbuf.obj
 0001:00025c7f       __output                   00426c7f f   LIBC:output.obj
 0001:000264e6       __openfile                 004274e6 f   LIBC:_open.obj
 0001:00026656       __getstream                00427656 f   LIBC:stream.obj
 0001:000266ce       __setdefaultprecision      004276ce f   LIBC:fp8.obj
 0001:000266e0       __ms_p5_test_fdiv          004276e0 f   LIBC:testfdiv.obj
 0001:0002671e       __ms_p5_mp_test_fdiv       0042771e f   LIBC:testfdiv.obj
 0001:00026747       __forcdecpt                00427747 f   LIBC:cvt.obj
 0001:000267a1       __cropzeros                004277a1 f   LIBC:cvt.obj
 0001:000267ef       __positive                 004277ef f   LIBC:cvt.obj
 0001:00026807       __fassign                  00427807 f   LIBC:cvt.obj
 0001:00026845       __cftoe                    00427845 f   LIBC:cvt.obj
 0001:00026949       __cftof                    00427949 f   LIBC:cvt.obj
 0001:00026a27       __cftog                    00427a27 f   LIBC:cvt.obj
 0001:00026b0c       __cfltcvt                  00427b0c f   LIBC:cvt.obj
 0001:00026b82       ?__CxxUnhandledExceptionFilter@@YGJPAU_EXCEPTION_POINTERS@@@Z 00427b82 f   LIBC:unhandld.obj
 0001:00026bc8       ?__CxxSetUnhandledExceptionFilter@@YAXXZ 00427bc8 f   LIBC:unhandld.obj
 0001:00026bd9       ?__CxxRestoreUnhandledExceptionFilter@@YAXXZ 00427bd9 f   LIBC:unhandld.obj
 0001:00026be6       __cinit                    00427be6 f   LIBC:crt0dat.obj
 0001:00026c13       _exit                      00427c13 f   LIBC:crt0dat.obj
 0001:00026c24       __exit                     00427c24 f   LIBC:crt0dat.obj
 0001:00026ce8       _getenv                    00427ce8 f   LIBC:getenv.obj
 0001:00026d65       __flsbuf                   00427d65 f   LIBC:_flsbuf.obj
 0001:00026e7a       __msize                    00427e7a f   LIBC:msize.obj
 0001:00026edb       _calloc                    00427edb f   LIBC:calloc.obj
 0001:00026f8c       __fcloseall                00427f8c f   LIBC:closeall.obj
 0001:00026fe4       ___unDName                 00427fe4 f   LIBC:undname.obj
 0001:0002707f       ?Destructor@HeapManager@@QAEXXZ 0042807f f i LIBC:undname.obj
 0001:000270a2       ??BUnDecorator@@QAEPADXZ   004280a2 f i LIBC:undname.obj
 0001:000271ad       ?getDecoratedName@UnDecorator@@CA?AVDName@@XZ 004281ad f   LIBC:undname.obj
 0001:000272fa       ?getSymbolName@UnDecorator@@CA?AVDName@@XZ 004282fa f i LIBC:undname.obj
 0001:00027324       ?getZName@UnDecorator@@CA?AVDName@@XZ 00428324 f   LIBC:undname.obj
 0001:000273dd       ?getOperatorName@UnDecorator@@CA?AVDName@@XZ 004283dd f i LIBC:undname.obj
 0001:00027787       ?getScope@UnDecorator@@CA?AVDName@@XZ 00428787 f   LIBC:undname.obj
 0001:00027a02       ?getSignedDimension@UnDecorator@@CA?AVDName@@XZ 00428a02 f   LIBC:undname.obj
 0001:00027a58       ?getDimension@UnDecorator@@CA?AVDName@@XZ 00428a58 f   LIBC:undname.obj
 0001:00027ad3       ?getNumberOfDimensions@UnDecorator@@CAHXZ 00428ad3 f   LIBC:undname.obj
 0001:00027b36       ?getTemplateName@UnDecorator@@CA?AVDName@@XZ 00428b36 f   LIBC:undname.obj
 0001:00027c46       ?getTemplateArgumentList@UnDecorator@@CA?AVDName@@XZ 00428c46 f   LIBC:undname.obj
 0001:00027e04       ?getTemplateConstant@UnDecorator@@CA?AVDName@@XZ 00428e04 f   LIBC:undname.obj
 0001:00027fb2       ?composeDeclaration@UnDecorator@@CA?AVDName@@ABV2@@Z 00428fb2 f i LIBC:undname.obj
 0001:00028a32       ?getTypeEncoding@UnDecorator@@CAHXZ 00429a32 f i LIBC:undname.obj
 0001:00028d32       ?getBasedType@UnDecorator@@CA?AVDName@@XZ 00429d32 f   LIBC:undname.obj
 0001:00028dc2       ?getScopedName@UnDecorator@@CA?AVDName@@XZ 00429dc2 f   LIBC:undname.obj
 0001:00028e9f       ?getCallingConvention@UnDecorator@@CA?AVDName@@XZ 00429e9f f   LIBC:undname.obj
 0001:00028f3b       ?getReturnType@UnDecorator@@CA?AVDName@@PAV2@@Z 00429f3b f   LIBC:undname.obj
 0001:00028f6d       ?getDataType@UnDecorator@@CA?AVDName@@PAV2@@Z 00429f6d f   LIBC:undname.obj
 0001:00029021       ?getPrimaryDataType@UnDecorator@@CA?AVDName@@ABV2@@Z 0042a021 f   LIBC:undname.obj
 0001:00029173       ?getArgumentTypes@UnDecorator@@CA?AVDName@@XZ 0042a173 f   LIBC:undname.obj
 0001:0002920b       ?getArgumentList@UnDecorator@@CA?AVDName@@XZ 0042a20b f   LIBC:undname.obj
 0001:000292e3       ?getThrowTypes@UnDecorator@@CA?AVDName@@XZ 0042a2e3 f   LIBC:undname.obj
 0001:00029369       ?getBasicDataType@UnDecorator@@CA?AVDName@@ABV2@@Z 0042a369 f   LIBC:undname.obj
 0001:000296a6       ?getECSUDataType@UnDecorator@@CA?AVDName@@XZ 0042a6a6 f   LIBC:undname.obj
 0001:000297a3       ?getEnumType@UnDecorator@@CA?AVDName@@XZ 0042a7a3 f i LIBC:undname.obj
 0001:0002987c       ?getFunctionIndirectType@UnDecorator@@CA?AVDName@@ABV2@@Z 0042a87c f   LIBC:undname.obj
 0001:00029be2       ?getPtrRefType@UnDecorator@@CA?AVDName@@ABV2@0H@Z 0042abe2 f   LIBC:undname.obj
 0001:00029d17       ?getDataIndirectType@UnDecorator@@CA?AVDName@@ABV2@D0H@Z 0042ad17 f   LIBC:undname.obj
 0001:0002a119       ?getPtrRefDataType@UnDecorator@@CA?AVDName@@ABV2@H@Z 0042b119 f i LIBC:undname.obj
 0001:0002a1ab       ?getArrayType@UnDecorator@@CA?AVDName@@ABV2@@Z 0042b1ab f i LIBC:undname.obj
 0001:0002a2f9       ?getLexicalFrame@UnDecorator@@CA?AVDName@@XZ 0042b2f9 f i LIBC:undname.obj
 0001:0002a331       ?getThisType@UnDecorator@@CA?AVDName@@XZ 0042b331 f i LIBC:undname.obj
 0001:0002a35d       ?getVCallThunkType@UnDecorator@@CA?AVDName@@XZ 0042b35d f i LIBC:undname.obj
 0001:0002a397       ?getVfTableType@UnDecorator@@CA?AVDName@@ABV2@@Z 0042b397 f i LIBC:undname.obj
 0001:0002a521       ?getDataIndirectType@UnDecorator@@CA?AVDName@@XZ 0042b521 f i LIBC:undname.obj
 0001:0002a54d       ?getExternalDataType@UnDecorator@@CA?AVDName@@ABV2@@Z 0042b54d f i LIBC:undname.obj
 0001:0002a5bc       ?UScore@UnDecorator@@SAPBDW4Tokens@@@Z 0042b5bc f   LIBC:undname.obj
 0001:0002a5d5       ?getMemory@HeapManager@@QAEPAXIH@Z 0042b5d5 f   LIBC:undname.obj
 0001:0002a65c       ??0DName@@QAE@XZ           0042b65c f i LIBC:undname.obj
 0001:0002a666       ??0DName@@QAE@D@Z          0042b666 f   LIBC:undname.obj
 0001:0002a689       ??0DName@@QAE@ABV0@@Z      0042b689 f i LIBC:undname.obj
 0001:0002a6d5       ??0DName@@QAE@PAV0@@Z      0042b6d5 f   LIBC:undname.obj
 0001:0002a72b       ??0DName@@QAE@PBD@Z        0042b72b f   LIBC:undname.obj
 0001:0002a755       ??0DName@@QAE@AAPBDD@Z     0042b755 f   LIBC:undname.obj
 0001:0002a80f       ??0DName@@QAE@K@Z          0042b80f f   LIBC:undname.obj
 0001:0002a85f       ??0DName@@QAE@W4DNameStatus@@@Z 0042b85f f   LIBC:undname.obj
 0001:0002a8c1       ?isValid@DName@@QBEHXZ     0042b8c1 f   LIBC:undname.obj
 0001:0002a8d5       ?isEmpty@DName@@QBEHXZ     0042b8d5 f   LIBC:undname.obj
 0001:0002a8ea       ?isUDC@DName@@QBEHXZ       0042b8ea f i LIBC:undname.obj
 0001:0002a905       ?isUDTThunk@DName@@QBEHXZ  0042b905 f i LIBC:undname.obj
 0001:0002a920       ?length@DName@@QBEHXZ      0042b920 f   LIBC:undname.obj
 0001:0002a947       ?getLastChar@DName@@QBEDXZ 0042b947 f   LIBC:undname.obj
 0001:0002a981       ?getString@DName@@QBEPADPADH@Z 0042b981 f   LIBC:undname.obj
 0001:0002aa17       ??HDName@@QBE?AV0@D@Z      0042ba17 f   LIBC:undname.obj
 0001:0002aa56       ??HDName@@QBE?AV0@PBD@Z    0042ba56 f   LIBC:undname.obj
 0001:0002aa95       ??HDName@@QBE?AV0@ABV0@@Z  0042ba95 f   LIBC:undname.obj
 0001:0002aafc       ??HDName@@QBE?AV0@W4DNameStatus@@@Z 0042bafc f   LIBC:undname.obj
 0001:0002ab3b       ??YDName@@QAEAAV0@D@Z      0042bb3b f   LIBC:undname.obj
 0001:0002aba0       ??YDName@@QAEAAV0@PBD@Z    0042bba0 f   LIBC:undname.obj
 0001:0002ac0c       ??YDName@@QAEAAV0@ABV0@@Z  0042bc0c f   LIBC:undname.obj
 0001:0002ac70       ??YDName@@QAEAAV0@W4DNameStatus@@@Z 0042bc70 f   LIBC:undname.obj
 0001:0002ace9       ??_5DName@@QAEAAV0@ABV0@@Z 0042bce9 f   LIBC:undname.obj
 0001:0002ad25       ??4DName@@QAEAAV0@D@Z      0042bd25 f   LIBC:undname.obj
 0001:0002ad3e       ??4DName@@QAEAAV0@PBD@Z    0042bd3e f   LIBC:undname.obj
 0001:0002ad61       ??4DName@@QAEAAV0@ABV0@@Z  0042bd61 f   LIBC:undname.obj
 0001:0002adb9       ??4DName@@QAEAAV0@W4DNameStatus@@@Z 0042bdb9 f   LIBC:undname.obj
 0001:0002ae32       ?doPchar@DName@@AAEXPBDH@Z 0042be32 f   LIBC:undname.obj
 0001:0002aecd       ??0Replicator@@QAE@XZ      0042becd f i LIBC:undname.obj
 0001:0002aeeb       ??YReplicator@@QAEAAV0@ABVDName@@@Z 0042beeb f   LIBC:undname.obj
 0001:0002af32       ??AReplicator@@QBEABVDName@@H@Z 0042bf32 f   LIBC:undname.obj
 0001:0002af5b       ??0DNameNode@@IAE@XZ       0042bf5b f   LIBC:undname.obj
 0001:0002af68       ?clone@DNameNode@@QAEPAV1@XZ 0042bf68 f   LIBC:undname.obj
 0001:0002afae       ??0DName@@QAE@PAVDNameNode@@@Z 0042bfae f i LIBC:undname.obj
 0001:0002afbd       ??YDNameNode@@QAEAAV0@PAV0@@Z 0042bfbd f   LIBC:undname.obj
 0001:0002afe6       ??0charNode@@QAE@D@Z       0042bfe6 f   LIBC:undname.obj
 0001:0002b001       ?length@charNode@@UBEHXZ   0042c001 f i LIBC:undname.obj
 0001:0002b005       ?getLastChar@charNode@@UBEDXZ 0042c005 f i LIBC:undname.obj
 0001:0002b009       ?getString@charNode@@UBEPADPADH@Z 0042c009 f   LIBC:undname.obj
 0001:0002b024       ??0pcharNode@@QAE@PBDH@Z   0042c024 f   LIBC:undname.obj
 0001:0002b08d       ?length@DNameStatusNode@@UBEHXZ 0042c08d f i LIBC:undname.obj
 0001:0002b08d       ?length@pcharNode@@UBEHXZ  0042c08d f i LIBC:undname.obj
 0001:0002b091       ?getLastChar@pcharNode@@UBEDXZ 0042c091 f i LIBC:undname.obj
 0001:0002b0a3       ?getString@pcharNode@@UBEPADPADH@Z 0042c0a3 f   LIBC:undname.obj
 0001:0002b0d4       ??0pDNameNode@@QAE@PAVDName@@@Z 0042c0d4 f   LIBC:undname.obj
 0001:0002b105       ?length@pDNameNode@@UBEHXZ 0042c105 f i LIBC:undname.obj
 0001:0002b115       ?getLastChar@pDNameNode@@UBEDXZ 0042c115 f i LIBC:undname.obj
 0001:0002b125       ?getString@pDNameNode@@UBEPADPADH@Z 0042c125 f   LIBC:undname.obj
 0001:0002b14a       ??0DNameStatusNode@@QAE@W4DNameStatus@@@Z 0042c14a f   LIBC:undname.obj
 0001:0002b174       ?getLastChar@DNameStatusNode@@UBEDXZ 0042c174 f i LIBC:undname.obj
 0001:0002b183       ?getString@DNameStatusNode@@UBEPADPADH@Z 0042c183 f   LIBC:undname.obj
 0001:0002b1f4       __except_handler3          0042c1f4 f   LIBC:exsup3.obj
 0001:0002b2b1       __seh_longjmp_unwind@4     0042c2b1 f   LIBC:exsup3.obj
 0001:0002b2cc       __XcptFilter               0042c2cc f   LIBC:winxfltr.obj
 0001:0002b450       __setenvp                  0042c450 f   LIBC:stdenvp.obj
 0001:0002b509       __setargv                  0042c509 f   LIBC:stdargv.obj
 0001:0002b756       ___crtGetEnvironmentStringsA 0042c756 f   LIBC:a_env.obj
 0001:0002b888       __FF_MSGBANNER             0042c888 f   LIBC:crt0msg.obj
 0001:0002b8c1       __NMSG_WRITE               0042c8c1 f   LIBC:crt0msg.obj
 0001:0002ba14       _raise                     0042ca14 f   LIBC:winsig.obj
 0001:0002bb90       _strpbrk                   0042cb90 f   LIBC:strpbrk.obj
 0001:0002bbca       __dosmaperr                0042cbca f   LIBC:dosmap.obj
 0001:0002bc31       __sptype                   0042cc31 f   LIBC:util.obj
 0001:0002bc8b       __fltout                   0042cc8b f   LIBC:cfout.obj
 0001:0002bcef       ___dtold                   0042ccef f   LIBC:cfout.obj
 0001:0002bda5       __fptostr                  0042cda5 f   LIBC:_fptostr.obj
 0001:0002be1c       __commit                   0042ce1c f   LIBC:commit.obj
 0001:0002be73       __write                    0042ce73 f   LIBC:write.obj
 0001:0002c020       __ftelli64                 0042d020 f   LIBC:ftelli64.obj
 0001:0002c1a7       __lseek                    0042d1a7 f   LIBC:lseek.obj
 0001:0002c241       __fseeki64                 0042d241 f   LIBC:fseeki64.obj
 0001:0002c2d1       __getbuf                   0042d2d1 f   LIBC:_getbuf.obj
 0001:0002c315       _strtol                    0042d315 f   LIBC:strtol.obj
 0001:0002c534       ?_ValidateRead@@YAHPBXI@Z  0042d534 f   LIBC:validate.obj
 0001:0002c550       ?_ValidateWrite@@YAHPAXI@Z 0042d550 f   LIBC:validate.obj
 0001:0002c56c       ?_ValidateExecute@@YAHP6GHXZ@Z 0042d56c f   LIBC:validate.obj
 0001:0002c584       ___crtGetStringTypeA       0042d584 f   LIBC:a_str.obj
 0001:0002c6cd       __ZeroTail                 0042d6cd f   LIBC:intrncvt.obj
 0001:0002c716       __IncMan                   0042d716 f   LIBC:intrncvt.obj
 0001:0002c76c       __RoundMan                 0042d76c f   LIBC:intrncvt.obj
 0001:0002c7f8       __CopyMan                  0042d7f8 f   LIBC:intrncvt.obj
 0001:0002c813       __FillZeroMan              0042d813 f   LIBC:intrncvt.obj
 0001:0002c81f       __IsZeroMan                0042d81f f   LIBC:intrncvt.obj
 0001:0002c83a       __ShrMan                   0042d83a f   LIBC:intrncvt.obj
 0001:0002c8c7       __ld12cvt                  0042d8c7 f   LIBC:intrncvt.obj
 0001:0002ca33       __ld12tod                  0042da33 f   LIBC:intrncvt.obj
 0001:0002ca49       __ld12tof                  0042da49 f   LIBC:intrncvt.obj
 0001:0002ca5f       __atodbl                   0042da5f f   LIBC:intrncvt.obj
 0001:0002ca8c       __atoflt                   0042da8c f   LIBC:intrncvt.obj
 0001:0002cab9       ___strgtold12              0042dab9 f   LIBC:strgtold.obj
 0001:0002cf8a       __read                     0042df8a f   LIBC:read.obj
 0001:0002d180       __isatty                   0042e180 f   LIBC:isatty.obj
 0001:0002d1a6       _wctomb                    0042e1a6 f   LIBC:wctomb.obj
 0001:0002d20e       __sopen                    0042e20e f   LIBC:open.obj
 0001:0002d4c7       __control87                0042e4c7 f   LIBC:ieee87.obj
 0001:0002d4fc       __controlfp                0042e4fc f   LIBC:ieee87.obj
 0001:0002d62d       _tolower                   0042e62d f   LIBC:tolower.obj
 0001:0002d6f8       __fptrap                   0042e6f8 f   LIBC:crt0fp.obj
 0001:0002d701       __mbschr                   0042e701 f   LIBC:mbschr.obj
 0001:0002d774       __mbsnbicoll               0042e774 f   LIBC:mbsnbico.obj
 0001:0002d7b3       ___wtomb_environ           0042e7b3 f   LIBC:wtombenv.obj
 0001:0002d821       __purecall                 0042e821 f   LIBC:purevirt.obj
 0001:0002d82a       __setmbcp                  0042e82a f   LIBC:mbctype.obj
 0001:0002dbee       ___initmbctable            0042ebee f   LIBC:mbctype.obj
 0001:0002dc0a       ___crtMessageBoxA          0042ec0a f   LIBC:crtmbox.obj
 0001:0002dca0       __strcmpi                  0042eca0 f   LIBC:stricmp.obj
 0001:0002dca0       __stricmp                  0042eca0 f   LIBC:stricmp.obj
 0001:0002dd30       __strnicmp                 0042ed30 f   LIBC:strnicmp.obj
 0001:0002dddd       _$I10_OUTPUT               0042eddd f   LIBC:x10fout.obj
 0001:0002e070       __lseeki64                 0042f070 f   LIBC:lseeki64.obj
 0001:0002e121       _toupper                   0042f121 f   LIBC:toupper.obj
 0001:0002e1ed       ___addl                    0042f1ed f   LIBC:mantold.obj
 0001:0002e20e       ___add_12                  0042f20e f   LIBC:mantold.obj
 0001:0002e26c       ___shl_12                  0042f26c f   LIBC:mantold.obj
 0001:0002e29a       ___shr_12                  0042f29a f   LIBC:mantold.obj
 0001:0002e2c7       ___mtold12                 0042f2c7 f   LIBC:mantold.obj
 0001:0002e38e       ___ld12mul                 0042f38e f   LIBC:tenpow.obj
 0001:0002e5ae       ___multtenpow12            0042f5ae f   LIBC:tenpow.obj
 0001:0002e62a       __chsize                   0042f62a f   LIBC:chsize.obj
 0001:0002e770       ___crtLCMapStringA         0042f770 f   LIBC:a_map.obj
 0001:0002e9a0       _strrchr                   0042f9a0 f   LIBC:strrchr.obj
 0001:0002e9c7       ___crtCompareStringA       0042f9c7 f   LIBC:a_cmp.obj
 0001:0002ec6f       ___crtsetenv               0042fc6f f   LIBC:setenv.obj
 0001:0002eeb5       ___tzset                   0042feb5 f   LIBC:tzset.obj
 0001:0002eeca       __tzset                    0042feca f   LIBC:tzset.obj
 0001:0002f128       __isindst                  00430128 f   LIBC:tzset.obj
 0001:0002f414       __setmode                  00430414 f   LIBC:setmode.obj
 0001:0002f48a       __strdup                   0043048a f   LIBC:strdup.obj
 0001:0002f4c0       _RtlUnwind@16              004304c0 f   kernel32:KERNEL32.dll
 0001:0002f4c6       __fstat                    004304c6 f   LIBC:fstat.obj
 0001:0002f4c6       _fstat                     004304c6 f   LIBC:fstat.obj
 0001:0002f73e       ___loctotime_t             0043073e f   LIBC:dtoxtime.obj
 0002:00000004       ??_7runtime_error@_STL@@6B@ 00433004     DynamicRule.obj
 0002:00000010       ??_7__Named_exception@_STL@@6B@ 00433010     DynamicRule.obj
 0002:0000001c       ??_7KupError@ku_parser@@6B@ 0043301c     Kup.obj
 0002:00000028       ??_7?$basic_ios@DV?$char_traits@D@_STL@@@_STL@@6B@ 00433028     Kup.obj
 0002:00000030       ??_7?$basic_ifstream@DV?$char_traits@D@_STL@@@_STL@@6B@ 00433030     Kup.obj
 0002:00000034       ??_8?$basic_ifstream@DV?$char_traits@D@_STL@@@_STL@@7B@ 00433034     Kup.obj
 0002:00000040       ??_7?$basic_istream@DV?$char_traits@D@_STL@@@_STL@@6B@ 00433040     Kup.obj
 0002:00000044       ??_8?$basic_istream@DV?$char_traits@D@_STL@@@_STL@@7B@ 00433044     Kup.obj
 0002:00000050       ??_7?$basic_filebuf@DV?$char_traits@D@_STL@@@_STL@@6B@ 00433050     Kup.obj
 0002:0000008c       ??_7?$basic_streambuf@DV?$char_traits@D@_STL@@@_STL@@6B@ 0043308c     Kup.obj
 0002:000000c8       __real@8@00000000000000000000 004330c8     ParseTree.obj
 0002:000000d4       ??_7out_of_range@_STL@@6B@ 004330d4     stlport_vc6_static:dll_main.obj
 0002:000000e0       ??_7logic_error@_STL@@6B@  004330e0     stlport_vc6_static:dll_main.obj
 0002:000000ec       ??_7length_error@_STL@@6B@ 004330ec     stlport_vc6_static:dll_main.obj
 0002:000000f8       ??_7_Locale_impl@_STL@@6B@ 004330f8     stlport_vc6_static:locale_impl.obj
 0002:00000108       ??_7bad_cast@@6B@          00433108     stlport_vc6_static:locale_impl.obj
 0002:00000114       ??_7?$money_put@GV?$ostreambuf_iterator@GV?$char_traits@G@_STL@@@_STL@@@_STL@@6B@ 00433114     stlport_vc6_static:locale_impl.obj
 0002:00000124       ??_7?$money_get@GV?$istreambuf_iterator@GV?$char_traits@G@_STL@@@_STL@@@_STL@@6B@ 00433124     stlport_vc6_static:locale_impl.obj
 0002:00000134       ??_7?$time_put@GV?$ostreambuf_iterator@GV?$char_traits@G@_STL@@@_STL@@@_STL@@6B@ 00433134     stlport_vc6_static:locale_impl.obj
 0002:00000140       ??_7?$time_get@GV?$istreambuf_iterator@GV?$char_traits@G@_STL@@@_STL@@@_STL@@6B@ 00433140     stlport_vc6_static:locale_impl.obj
 0002:00000160       ??_7?$num_put@GV?$ostreambuf_iterator@GV?$char_traits@G@_STL@@@_STL@@@_STL@@6B@ 00433160     stlport_vc6_static:locale_impl.obj
 0002:00000188       ??_7?$num_get@GV?$istreambuf_iterator@GV?$char_traits@G@_STL@@@_STL@@@_STL@@6B@ 00433188     stlport_vc6_static:locale_impl.obj
 0002:000001bc       ??_7?$numpunct@G@_STL@@6B@ 004331bc     stlport_vc6_static:locale_impl.obj
 0002:000001d8       ??_7?$codecvt@GDH@_STL@@6B@ 004331d8     stlport_vc6_static:locale_impl.obj
 0002:000001fc       ??_7?$collate@G@_STL@@6B@  004331fc     stlport_vc6_static:locale_impl.obj
 0002:00000210       ??_7?$ctype@G@_STL@@6B@    00433210     stlport_vc6_static:locale_impl.obj
 0002:00000248       ??_7?$money_put@DV?$ostreambuf_iterator@DV?$char_traits@D@_STL@@@_STL@@@_STL@@6B@ 00433248     stlport_vc6_static:locale_impl.obj
 0002:00000258       ??_7?$money_get@DV?$istreambuf_iterator@DV?$char_traits@D@_STL@@@_STL@@@_STL@@6B@ 00433258     stlport_vc6_static:locale_impl.obj
 0002:00000268       ??_7?$time_put@DV?$ostreambuf_iterator@DV?$char_traits@D@_STL@@@_STL@@@_STL@@6B@ 00433268     stlport_vc6_static:locale_impl.obj
 0002:00000274       ??_7?$time_get@DV?$istreambuf_iterator@DV?$char_traits@D@_STL@@@_STL@@@_STL@@6B@ 00433274     stlport_vc6_static:locale_impl.obj
 0002:00000294       ??_7facet@locale@_STL@@6B@ 00433294     stlport_vc6_static:locale_impl.obj
 0002:0000029c       ??_7?$num_put@DV?$ostreambuf_iterator@DV?$char_traits@D@_STL@@@_STL@@@_STL@@6B@ 0043329c     stlport_vc6_static:locale_impl.obj
 0002:000002c4       ??_7?$num_get@DV?$istreambuf_iterator@DV?$char_traits@D@_STL@@@_STL@@@_STL@@6B@ 004332c4     stlport_vc6_static:locale_impl.obj
 0002:000002f8       ??_7?$numpunct@D@_STL@@6B@ 004332f8     stlport_vc6_static:locale_impl.obj
 0002:00000314       ??_7?$codecvt@DDH@_STL@@6B@ 00433314     stlport_vc6_static:locale_impl.obj
 0002:00000338       ??_7?$collate@D@_STL@@6B@  00433338     stlport_vc6_static:locale_impl.obj
 0002:00000348       __real@8@43fefffffffffffff800 00433348     stlport_vc6_static:locale_impl.obj
 0002:00000354       ??_7?$basic_ostream@DV?$char_traits@D@_STL@@@_STL@@6B@ 00433354     stlport_vc6_static:iostream.obj
 0002:0000035c       ??_7?$basic_istream@GV?$char_traits@G@_STL@@@_STL@@6B@ 0043335c     stlport_vc6_static:iostream.obj
 0002:00000364       ??_7?$basic_ostream@GV?$char_traits@G@_STL@@@_STL@@6B@ 00433364     stlport_vc6_static:iostream.obj
 0002:0000036c       ??_7?$basic_filebuf@GV?$char_traits@G@_STL@@@_STL@@6B@ 0043336c     stlport_vc6_static:iostream.obj
 0002:000003a8       ??_7?$basic_streambuf@GV?$char_traits@G@_STL@@@_STL@@6B@ 004333a8     stlport_vc6_static:iostream.obj
 0002:000003e4       ??_7stdio_ostreambuf@_SgI@@6B@ 004333e4     stlport_vc6_static:iostream.obj
 0002:00000420       ??_7stdio_istreambuf@_SgI@@6B@ 00433420     stlport_vc6_static:iostream.obj
 0002:00000458       ??_8?$basic_ostream@DV?$char_traits@D@_STL@@@_STL@@7B@ 00433458     stlport_vc6_static:iostream.obj
 0002:00000464       ??_7?$basic_ios@GV?$char_traits@G@_STL@@@_STL@@6B@ 00433464     stlport_vc6_static:iostream.obj
 0002:00000468       ??_8?$basic_istream@GV?$char_traits@G@_STL@@@_STL@@7B@ 00433468     stlport_vc6_static:iostream.obj
 0002:00000470       ??_8?$basic_ostream@GV?$char_traits@G@_STL@@@_STL@@7B@ 00433470     stlport_vc6_static:iostream.obj
 0002:0000047c       ??_7failure@ios_base@_STL@@6B@ 0043347c     stlport_vc6_static:ios.obj
 0002:00000488       ??_7ios_base@_STL@@6B@     00433488     stlport_vc6_static:ios.obj
 0002:0000048c       ?_S_classic_table@?$ctype@D@_STL@@0QBW4mask@ctype_base@2@B 0043348c     stlport_vc6_static:ctype.obj
 0002:00000890       ?_S_upper@?$ctype@D@_STL@@0QBEB 00433890     stlport_vc6_static:ctype.obj
 0002:00000990       ?_S_lower@?$ctype@D@_STL@@0QBEB 00433990     stlport_vc6_static:ctype.obj
 0002:00000a94       ??_7?$ctype@D@_STL@@6B@    00433a94     stlport_vc6_static:ctype.obj
 0002:00000abc       ??_7?$messages@D@_STL@@6B@ 00433abc     stlport_vc6_static:messages.obj
 0002:00000ad0       ??_7_Messages@_STL@@6B@    00433ad0     stlport_vc6_static:messages.obj
 0002:00000ae8       ??_7?$messages@G@_STL@@6B@ 00433ae8     stlport_vc6_static:messages.obj
 0002:00000afc       ??_7?$moneypunct@D$00@_STL@@6B@ 00433afc     stlport_vc6_static:monetary.obj
 0002:00000b28       ??_7?$moneypunct@D$0A@@_STL@@6B@ 00433b28     stlport_vc6_static:monetary.obj
 0002:00000b54       ??_7?$moneypunct@G$00@_STL@@6B@ 00433b54     stlport_vc6_static:monetary.obj
 0002:00000b80       ??_7?$moneypunct@G$0A@@_STL@@6B@ 00433b80     stlport_vc6_static:monetary.obj
 0002:00000eac       ?__digit_val_table@_STL@@3QBEB 00433eac     stlport_vc6_static:num_get.obj
 0002:00000f2c       ?__narrow_atoms@_STL@@3QBDB 00433f2c     stlport_vc6_static:num_get.obj
 0002:00000f34       ?__hex_char_table_lo@_STL@@3QBDB 00433f34     stlport_vc6_static:num_put.obj
 0002:00000f48       ?__hex_char_table_hi@_STL@@3QBDB 00433f48     stlport_vc6_static:num_put.obj
 0002:00001280       ?_D_inf@?$_LimG@_N@_STL@@2T_D_rep@2@B 00434280     stlport_vc6_static:num_get_float.obj
 0002:00001288       ?_L_inf@?$_LimG@_N@_STL@@2T_L_rep@2@B 00434288     stlport_vc6_static:num_get_float.obj
 0002:0000129c       ??_7stdio_streambuf_base@_SgI@@6B@ 0043429c     stlport_vc6_static:stdio_streambuf.obj
 0002:000012d8       ??_7exception@@6B@         004342d8     LIBC:stdexcpt.obj
 0002:000012e0       ??_C@_0BC@OIDF@Unknown?5exception?$AA@ 004342e0     LIBC:stdexcpt.obj
 0002:000012f8       ??_7type_info@@6B@         004342f8     LIBC:typinfo.obj
 0002:00001320       ??_C@_0CB@FCJM@Access?5violation?5?9?5no?5RTTI?5data?$CB@ 00434320     LIBC:rtti.obj
 0002:00001348       ??_7__non_rtti_object@@6B@ 00434348     LIBC:rtti.obj
 0002:00001354       ??_7bad_typeid@@6B@        00434354     LIBC:rtti.obj
 0002:0000135c       ??_C@_0CB@OFOA@Bad?5read?5pointer?5?9?5no?5RTTI?5data?$CB@ 0043435c     LIBC:rtti.obj
 0002:00001380       ??_C@_0CE@DOMJ@Attempted?5a?5typeid?5of?5NULL?5point@ 00434380     LIBC:rtti.obj
 0002:000013c4       ??_C@_01KPOD@?$DN?$AA@     004343c4     LIBC:setlocal.obj
 0002:000013f8       __real@8@3fff8000000000000000 004343f8     LIBC:ieeemisc.obj
 0002:00001400       ??_C@_0BH@PHHF@__GLOBAL_HEAP_SELECTED?$AA@ 00434400     LIBC:heapinit.obj
 0002:00001418       ??_C@_0BF@BBGL@__MSVCRT_HEAP_SELECT?$AA@ 00434418     LIBC:heapinit.obj
 0002:000014a8       ___lookuptable             004344a8     LIBC:output.obj
 0002:00001504       ??_C@_1O@POHA@?$AA?$CI?$AAn?$AAu?$AAl?$AAl?$AA?$CJ?$AA?$AA@ 00434504     LIBC:output.obj
 0002:00001514       ??_C@_06ONKE@?$CInull?$CJ?$AA@ 00434514     LIBC:output.obj
 0002:00001520       __real@8@4015800bf60000000000 00434520     LIBC:testfdiv.obj
 0002:00001528       __real@8@4014bffffc0000000000 00434528     LIBC:testfdiv.obj
 0002:00001530       ??_C@_0BK@JEGK@IsProcessorFeaturePresent?$AA@ 00434530     LIBC:testfdiv.obj
 0002:0000154c       ??_C@_08OBID@KERNEL32?$AA@ 0043454c     LIBC:testfdiv.obj
 0002:00001558       ??_C@_05OFLO@e?$CL000?$AA@ 00434558     LIBC:cvt.obj
 0002:00001560       ??_C@_04GGNP@?4com?$AA@    00434560     LIBC:spawnve.obj
 0002:00001568       ??_C@_04NFOM@?4exe?$AA@    00434568     LIBC:spawnve.obj
 0002:00001570       ??_C@_04KBDN@?4bat?$AA@    00434570     LIBC:spawnve.obj
 0002:00001578       ??_C@_04LFKF@?4cmd?$AA@    00434578     LIBC:spawnve.obj
 0002:000016d4       ??_C@_0BK@MFPB@?5Complete?5Object?5Locator?8?$AA@ 004346d4     LIBC:undname.obj
 0002:000016f0       ??_C@_0BN@DBLG@?5Class?5Hierarchy?5Descriptor?8?$AA@ 004346f0     LIBC:undname.obj
 0002:00001710       ??_C@_0BD@LLKK@?5Base?5Class?5Array?8?$AA@ 00434710     LIBC:undname.obj
 0002:00001724       ??_C@_0BM@MCHN@?5Base?5Class?5Descriptor?5at?5?$CI?$AA@ 00434724     LIBC:undname.obj
 0002:00001740       ??_C@_0BC@LEAL@?5Type?5Descriptor?8?$AA@ 00434740     LIBC:undname.obj
 0002:00001754       ??_C@_0BN@EPOG@?$GAplacement?5delete?$FL?$FN?5closure?8?$AA@ 00434754     LIBC:undname.obj
 0002:00001774       ??_C@_0BL@NIHJ@?$GAplacement?5delete?5closure?8?$AA@ 00434774     LIBC:undname.obj
 0002:00001790       ??_C@_0P@LCIK@?$GAomni?5callsig?8?$AA@ 00434790     LIBC:undname.obj
 0002:000017a0       ??_C@_09HLOM@?5delete?$FL?$FN?$AA@ 004347a0     LIBC:undname.obj
 0002:000017ac       ??_C@_06HIMC@?5new?$FL?$FN?$AA@ 004347ac     LIBC:undname.obj
 0002:000017b4       ??_C@_0CE@CJOI@?$GAlocal?5vftable?5constructor?5closu@ 004347b4     LIBC:undname.obj
 0002:000017d8       ??_C@_0BA@NAN@?$GAlocal?5vftable?8?$AA@ 004347d8     LIBC:undname.obj
 0002:000017e8       ??_C@_05GLCN@?$GARTTI?$AA@ 004347e8     LIBC:undname.obj
 0002:000017f0       ??_C@_03NAKC@?$GAEH?$AA@   004347f0     LIBC:undname.obj
 0002:000017f4       ??_C@_0BA@GFDF@?$GAudt?5returning?8?$AA@ 004347f4     LIBC:undname.obj
 0002:00001804       ??_C@_0BL@LADI@?$GAcopy?5constructor?5closure?8?$AA@ 00434804     LIBC:undname.obj
 0002:00001820       ??_C@_0CH@MNHN@?$GAeh?5vector?5vbase?5constructor?5ite@ 00434820     LIBC:undname.obj
 0002:00001848       ??_C@_0CA@DLAM@?$GAeh?5vector?5destructor?5iterator?8?$AA@ 00434848     LIBC:undname.obj
 0002:00001868       ??_C@_0CB@NDIB@?$GAeh?5vector?5constructor?5iterator?8@ 00434868     LIBC:undname.obj
 0002:0000188c       ??_C@_0BK@IHNI@?$GAvirtual?5displacement?5map?$AA@ 0043488c     LIBC:undname.obj
 0002:000018a8       ??_C@_0CE@PHNN@?$GAvector?5vbase?5constructor?5iterat@ 004348a8     LIBC:undname.obj
 0002:000018cc       ??_C@_0BN@PEEL@?$GAvector?5destructor?5iterator?8?$AA@ 004348cc     LIBC:undname.obj
 0002:000018ec       ??_C@_0BO@CMEO@?$GAvector?5constructor?5iterator?8?$AA@ 004348ec     LIBC:undname.obj
 0002:0000190c       ??_C@_0BN@IAAJ@?$GAscalar?5deleting?5destructor?8?$AA@ 0043490c     LIBC:undname.obj
 0002:0000192c       ??_C@_0BO@HFLM@?$GAdefault?5constructor?5closure?8?$AA@ 0043492c     LIBC:undname.obj
 0002:0000194c       ??_C@_0BN@FFIL@?$GAvector?5deleting?5destructor?8?$AA@ 0043494c     LIBC:undname.obj
 0002:0000196c       ??_C@_0BD@FCEL@?$GAvbase?5destructor?8?$AA@ 0043496c     LIBC:undname.obj
 0002:00001980       ??_C@_08CPDO@?$GAstring?8?$AA@ 00434980     LIBC:undname.obj
 0002:0000198c       ??_C@_0BF@JLCD@?$GAlocal?5static?5guard?8?$AA@ 0043498c     LIBC:undname.obj
 0002:000019a4       ??_C@_08DDNJ@?$GAtypeof?8?$AA@ 004349a4     LIBC:undname.obj
 0002:000019b0       ??_C@_07DCIL@?$GAvcall?8?$AA@ 004349b0     LIBC:undname.obj
 0002:000019b8       ??_C@_09CPNF@?$GAvbtable?8?$AA@ 004349b8     LIBC:undname.obj
 0002:000019c4       ??_C@_09JFID@?$GAvftable?8?$AA@ 004349c4     LIBC:undname.obj
 0002:000019d0       ??_C@_02KNEE@?$FO?$DN?$AA@ 004349d0     LIBC:undname.obj
 0002:000019d4       ??_C@_02FFED@?$HM?$DN?$AA@ 004349d4     LIBC:undname.obj
 0002:000019d8       ??_C@_02NEO@?$CG?$DN?$AA@  004349d8     LIBC:undname.obj
 0002:000019dc       ??_C@_03EELG@?$DM?$DM?$DN?$AA@ 004349dc     LIBC:undname.obj
 0002:000019e0       ??_C@_03MNMO@?$DO?$DO?$DN?$AA@ 004349e0     LIBC:undname.obj
 0002:000019e4       ??_C@_02DGLB@?$CF?$DN?$AA@ 004349e4     LIBC:undname.obj
 0002:000019e8       ??_C@_02KOLA@?1?$DN?$AA@   004349e8     LIBC:undname.obj
 0002:000019ec       ??_C@_02IDOF@?9?$DN?$AA@   004349ec     LIBC:undname.obj
 0002:000019f0       ??_C@_02PEBK@?$CL?$DN?$AA@ 004349f0     LIBC:undname.obj
 0002:000019f4       ??_C@_02OCLA@?$CK?$DN?$AA@ 004349f4     LIBC:undname.obj
 0002:000019f8       ??_C@_02FKBE@?$HM?$HM?$AA@ 004349f8     LIBC:undname.obj
 0002:000019fc       ??_C@_02PDP@?$CG?$CG?$AA@  004349fc     LIBC:undname.obj
 0002:00001a00       ??_C@_01KALE@?$HM?$AA@     00434a00     LIBC:undname.obj
 0002:00001a04       ??_C@_01PFJK@?$HO?$AA@     00434a04     LIBC:undname.obj
 0002:00001a08       ??_C@_02MMMJ@?$CI?$CJ?$AA@ 00434a08     LIBC:undname.obj
 0002:00001a0c       ??_C@_02NCLD@?$DO?$DN?$AA@ 00434a0c     LIBC:undname.obj
 0002:00001a10       ??_C@_01FAFK@?$DO?$AA@     00434a10     LIBC:undname.obj
 0002:00001a14       ??_C@_02PPOG@?$DM?$DN?$AA@ 00434a14     LIBC:undname.obj
 0002:00001a18       ??_C@_01FHE@?$DM?$AA@      00434a18     LIBC:undname.obj
 0002:00001a1c       ??_C@_01FCCL@?$CF?$AA@     00434a1c     LIBC:undname.obj
 0002:00001a20       ??_C@_03OGAK@?9?$DO?$CK?$AA@ 00434a20     LIBC:undname.obj
 0002:00001a24       ??_C@_01KNJC@?$CG?$AA@     00434a24     LIBC:undname.obj
 0002:00001a28       ??_C@_01PJOB@?$CL?$AA@     00434a28     LIBC:undname.obj
 0002:00001a2c       ??_C@_01GJD@?9?$AA@        00434a2c     LIBC:undname.obj
 0002:00001a30       ??_C@_02CKJF@?9?9?$AA@     00434a30     LIBC:undname.obj
 0002:00001a34       ??_C@_02KCBI@?$CL?$CL?$AA@ 00434a34     LIBC:undname.obj
 0002:00001a38       ??_C@_02HMFM@?9?$DO?$AA@   00434a38     LIBC:undname.obj
 0002:00001a3c       ??_C@_08KMNC@operator?$AA@ 00434a3c     LIBC:undname.obj
 0002:00001a48       ??_C@_02BGGE@?$FL?$FN?$AA@ 00434a48     LIBC:undname.obj
 0002:00001a4c       ??_C@_02GMBL@?$CB?$DN?$AA@ 00434a4c     LIBC:undname.obj
 0002:00001a50       ??_C@_02OJEM@?$DN?$DN?$AA@ 00434a50     LIBC:undname.obj
 0002:00001a54       ??_C@_02FFHB@?$DM?$DM?$AA@ 00434a54     LIBC:undname.obj
 0002:00001a58       ??_C@_02CNAK@?$DO?$DO?$AA@ 00434a58     LIBC:undname.obj
 0002:00001a5c       ??_C@_07FBEE@?5delete?$AA@ 00434a5c     LIBC:undname.obj
 0002:00001a64       ??_C@_04CJLN@?5new?$AA@    00434a64     LIBC:undname.obj
 0002:00001a6c       ??_C@_0L@CKEM@__restrict?$AA@ 00434a6c     LIBC:undname.obj
 0002:00001a78       ??_C@_07GMOI@__ptr64?$AA@  00434a78     LIBC:undname.obj
 0002:00001a80       ??_C@_0L@ODGP@__com3call?$AA@ 00434a80     LIBC:undname.obj
 0002:00001a8c       ??_C@_0L@PLEG@__fastcall?$AA@ 00434a8c     LIBC:undname.obj
 0002:00001a98       ??_C@_0L@PHD@__thiscall?$AA@ 00434a98     LIBC:undname.obj
 0002:00001aa4       ??_C@_09PGII@__stdcall?$AA@ 00434aa4     LIBC:undname.obj
 0002:00001ab0       ??_C@_08HPJP@__pascal?$AA@ 00434ab0     LIBC:undname.obj
 0002:00001abc       ??_C@_07JAPM@__cdecl?$AA@  00434abc     LIBC:undname.obj
 0002:00001ac4       ??_C@_08KBDG@__based?$CI?$AA@ 00434ac4     LIBC:undname.obj
 0002:00001ad0       ??_C@_04GNO@CV?3?5?$AA@    00434ad0     LIBC:undname.obj
 0002:00001ad8       ??_C@_02NNPM@?3?3?$AA@     00434ad8     LIBC:undname.obj
 0002:00001adc       ??_C@_0BG@LHIO@?$GAanonymous?5namespace?8?$AA@ 00434adc     LIBC:undname.obj
 0002:00001af4       ??_C@_04BMNE@void?$AA@     00434af4     LIBC:undname.obj
 0002:00001afc       ??_C@_0BE@EFGJ@?$GAtemplate?9parameter?$AA@ 00434afc     LIBC:undname.obj
 0002:00001b10       ??_C@_04BAK@NULL?$AA@      00434b10     LIBC:undname.obj
 0002:00001b18       ??_C@_08DJI@?$FLthunk?$FN?3?$AA@ 00434b18     LIBC:undname.obj
 0002:00001b24       ??_C@_08EIIM@public?3?5?$AA@ 00434b24     LIBC:undname.obj
 0002:00001b30       ??_C@_0M@CBDC@protected?3?5?$AA@ 00434b30     LIBC:undname.obj
 0002:00001b3c       ??_C@_09ODI@private?3?5?$AA@ 00434b3c     LIBC:undname.obj
 0002:00001b48       ??_C@_08HPJA@virtual?5?$AA@ 00434b48     LIBC:undname.obj
 0002:00001b54       ??_C@_07LNPG@static?5?$AA@ 00434b54     LIBC:undname.obj
 0002:00001b5c       ??_C@_0DA@HHNE@?$GAtemplate?5static?5data?5member?5des@ 00434b5c     LIBC:undname.obj
 0002:00001b8c       ??_C@_0DB@MCGN@?$GAtemplate?5static?5data?5member?5con@ 00434b8c     LIBC:undname.obj
 0002:00001bc0       ??_C@_0CB@DNFG@?$GAlocal?5static?5destructor?5helper?8@ 00434bc0     LIBC:undname.obj
 0002:00001be4       ??_C@_02OLAP@?$HN?8?$AA@   00434be4     LIBC:undname.obj
 0002:00001be8       ??_C@_0L@NBLO@?$GAadjustor?$HL?$AA@ 00434be8     LIBC:undname.obj
 0002:00001bf4       ??_C@_0L@DNFK@?$GAvtordisp?$HL?$AA@ 00434bf4     LIBC:undname.obj
 0002:00001c00       ??_C@_03IKAL@?$HN?8?5?$AA@ 00434c00     LIBC:undname.obj
 0002:00001c04       ??_C@_02CEEM@?$CJ?5?$AA@   00434c04     LIBC:undname.obj
 0002:00001c08       ??_C@_05JDPM@void?5?$AA@   00434c08     LIBC:undname.obj
 0002:00001c10       ??_C@_08CACH@volatile?$AA@ 00434c10     LIBC:undname.obj
 0002:00001c1c       ??_C@_03NAME@?4?4?4?$AA@   00434c1c     LIBC:undname.obj
 0002:00001c20       ??_C@_04MFFO@?0?4?4?4?$AA@ 00434c20     LIBC:undname.obj
 0002:00001c28       ??_C@_07HEFF@?5throw?$CI?$AA@ 00434c28     LIBC:undname.obj
 0002:00001c30       ??_C@_09GJCC@?5volatile?$AA@ 00434c30     LIBC:undname.obj
 0002:00001c3c       ??_C@_05KCGI@const?$AA@    00434c3c     LIBC:undname.obj
 0002:00001c44       ??_C@_07MFKF@signed?5?$AA@ 00434c44     LIBC:undname.obj
 0002:00001c4c       ??_C@_07CNPM@UNKNOWN?$AA@  00434c4c     LIBC:undname.obj
 0002:00001c54       ??_C@_07EAPL@wchar_t?$AA@  00434c54     LIBC:undname.obj
 0002:00001c5c       ??_C@_08NLKA@__int128?$AA@ 00434c5c     LIBC:undname.obj
 0002:00001c68       ??_C@_07BGNA@__int64?$AA@  00434c68     LIBC:undname.obj
 0002:00001c70       ??_C@_07KFKC@__int32?$AA@  00434c70     LIBC:undname.obj
 0002:00001c78       ??_C@_07CCKL@__int16?$AA@  00434c78     LIBC:undname.obj
 0002:00001c80       ??_C@_06LHNP@__int8?$AA@   00434c80     LIBC:undname.obj
 0002:00001c88       ??_C@_04PPPK@bool?$AA@     00434c88     LIBC:undname.obj
 0002:00001c90       ??_C@_09OKF@unsigned?5?$AA@ 00434c90     LIBC:undname.obj
 0002:00001c9c       ??_C@_06PJOP@double?$AA@   00434c9c     LIBC:undname.obj
 0002:00001ca4       ??_C@_05FFFH@long?5?$AA@   00434ca4     LIBC:undname.obj
 0002:00001cac       ??_C@_05PIME@float?$AA@    00434cac     LIBC:undname.obj
 0002:00001cb4       ??_C@_04LHCN@long?$AA@     00434cb4     LIBC:undname.obj
 0002:00001cbc       ??_C@_03EMIM@int?$AA@      00434cbc     LIBC:undname.obj
 0002:00001cc0       ??_C@_05BODP@short?$AA@    00434cc0     LIBC:undname.obj
 0002:00001cc8       ??_C@_04KENI@char?$AA@     00434cc8     LIBC:undname.obj
 0002:00001cd0       ??_C@_0P@DBCM@?$GAunknown?5ecsu?8?$AA@ 00434cd0     LIBC:undname.obj
 0002:00001ce0       ??_C@_06HODG@union?5?$AA@  00434ce0     LIBC:undname.obj
 0002:00001ce8       ??_C@_07EFPK@struct?5?$AA@ 00434ce8     LIBC:undname.obj
 0002:00001cf0       ??_C@_06FJFG@class?5?$AA@  00434cf0     LIBC:undname.obj
 0002:00001cf8       ??_C@_05OOP@enum?5?$AA@    00434cf8     LIBC:undname.obj
 0002:00001d00       ??_C@_04FHKM@int?5?$AA@    00434d00     LIBC:undname.obj
 0002:00001d08       ??_C@_06EFPO@short?5?$AA@  00434d08     LIBC:undname.obj
 0002:00001d10       ??_C@_05MGEE@char?5?$AA@   00434d10     LIBC:undname.obj
 0002:00001d18       ??_C@_06IEC@const?5?$AA@   00434d18     LIBC:undname.obj
 0002:00001d20       ??_C@_09DFMA@volatile?5?$AA@ 00434d20     LIBC:undname.obj
 0002:00001d2c       ??_C@_02NBBN@?$CJ?$FL?$AA@ 00434d2c     LIBC:undname.obj
 0002:00001d30       ??_C@_06MJGO@?$HLflat?$HN?$AA@ 00434d30     LIBC:undname.obj
 0002:00001d38       ??_C@_02HMEB@s?5?$AA@      00434d38     LIBC:undname.obj
 0002:00001d3c       ??_C@_05EMIF@?$HLfor?5?$AA@ 00434d3c     LIBC:undname.obj
 0002:00001d44       ??_7DNameNode@@6B@         00434d44     LIBC:undname.obj
 0002:00001d50       ??_7charNode@@6B@          00434d50     LIBC:undname.obj
 0002:00001d5c       ??_7pcharNode@@6B@         00434d5c     LIBC:undname.obj
 0002:00001d68       ??_7pDNameNode@@6B@        00434d68     LIBC:undname.obj
 0002:00001d74       ??_7DNameStatusNode@@6B@   00434d74     LIBC:undname.obj
 0002:00001d80       ??_C@_04NODD@?5?$DP?$DP?5?$AA@ 00434d80     LIBC:undname.obj
 0002:00001d88       ??_C@_0P@GGKG@runtime?5error?5?$AA@ 00434d88     LIBC:crt0msg.obj
 0002:00001d98       ??_C@_0O@DELO@TLOSS?5error?$AN?6?$AA@ 00434d98     LIBC:crt0msg.obj
 0002:00001da8       ??_C@_0N@OMLL@SING?5error?$AN?6?$AA@ 00434da8     LIBC:crt0msg.obj
 0002:00001db8       ??_C@_0P@OJAK@DOMAIN?5error?$AN?6?$AA@ 00434db8     LIBC:crt0msg.obj
 0002:00001dc8       ??_C@_0CF@EANP@R6028?$AN?6?9?5unable?5to?5initialize?5he@ 00434dc8     LIBC:crt0msg.obj
 0002:00001df0       ??_C@_0DF@ECGN@R6027?$AN?6?9?5not?5enough?5space?5for?5lo@ 00434df0     LIBC:crt0msg.obj
 0002:00001e28       ??_C@_0DF@FKAC@R6026?$AN?6?9?5not?5enough?5space?5for?5st@ 00434e28     LIBC:crt0msg.obj
 0002:00001e60       ??_C@_0CG@DPMN@R6025?$AN?6?9?5pure?5virtual?5function?5c@ 00434e60     LIBC:crt0msg.obj
 0002:00001e88       ??_C@_0DF@CKIP@R6024?$AN?6?9?5not?5enough?5space?5for?5_o@ 00434e88     LIBC:crt0msg.obj
 0002:00001ec0       ??_C@_0CJ@GGOE@R6019?$AN?6?9?5unable?5to?5open?5console?5@ 00434ec0     LIBC:crt0msg.obj
 0002:00001eec       ??_C@_0CB@LBOB@R6018?$AN?6?9?5unexpected?5heap?5error?$AN?6@ 00434eec     LIBC:crt0msg.obj
 0002:00001f10       ??_C@_0CN@FPEG@R6017?$AN?6?9?5unexpected?5multithread?5@ 00434f10     LIBC:crt0msg.obj
 0002:00001f40       ??_C@_0CM@OBIC@R6016?$AN?6?9?5not?5enough?5space?5for?5th@ 00434f40     LIBC:crt0msg.obj
 0002:00001f6c       ??_C@_0CB@HPAL@?$AN?6abnormal?5program?5termination?$AN?6@ 00434f6c     LIBC:crt0msg.obj
 0002:00001f90       ??_C@_0CM@JOOB@R6009?$AN?6?9?5not?5enough?5space?5for?5en@ 00434f90     LIBC:crt0msg.obj
 0002:00001fbc       ??_C@_0CK@OIBL@R6008?$AN?6?9?5not?5enough?5space?5for?5ar@ 00434fbc     LIBC:crt0msg.obj
 0002:00001fe8       ??_C@_0CF@LKPB@R6002?$AN?6?9?5floating?5point?5not?5load@ 00434fe8     LIBC:crt0msg.obj
 0002:00002010       ??_C@_0CF@JPDF@Microsoft?5Visual?5C?$CL?$CL?5Runtime?5Lib@ 00435010     LIBC:crt0msg.obj
 0002:00002038       ??_C@_0BK@DEOK@Runtime?5Error?$CB?6?6Program?3?5?$AA@ 00435038     LIBC:crt0msg.obj
 0002:00002054       ??_C@_0BH@NNCD@?$DMprogram?5name?5unknown?$DO?$AA@ 00435054     LIBC:crt0msg.obj
 0002:0000206c       ??_C@_03GAFO@_yn?$AA@      0043506c     LIBC:fpexcept.obj
 0002:00002070       ??_C@_03GNLD@_y1?$AA@      00435070     LIBC:fpexcept.obj
 0002:00002074       ??_C@_03MHCE@_y0?$AA@      00435074     LIBC:fpexcept.obj
 0002:00002078       ??_C@_05PAK@frexp?$AA@     00435078     LIBC:fpexcept.obj
 0002:00002080       ??_C@_04JKCH@fmod?$AA@     00435080     LIBC:fpexcept.obj
 0002:00002088       ??_C@_06GGHF@_hypot?$AA@   00435088     LIBC:fpexcept.obj
 0002:00002090       ??_C@_05JNMC@_cabs?$AA@    00435090     LIBC:fpexcept.obj
 0002:00002098       ??_C@_05MEKH@ldexp?$AA@    00435098     LIBC:fpexcept.obj
 0002:000020a0       ??_C@_04KAOJ@modf?$AA@     004350a0     LIBC:fpexcept.obj
 0002:000020a8       ??_C@_04EHAJ@fabs?$AA@     004350a8     LIBC:fpexcept.obj
 0002:000020b0       ??_C@_05MFBN@floor?$AA@    004350b0     LIBC:fpexcept.obj
 0002:000020b8       ??_C@_04JJMP@ceil?$AA@     004350b8     LIBC:fpexcept.obj
 0002:000020c0       ??_C@_03JLPI@tan?$AA@      004350c0     LIBC:fpexcept.obj
 0002:000020c4       ??_C@_03DLFL@cos?$AA@      004350c4     LIBC:fpexcept.obj
 0002:000020c8       ??_C@_03JAMN@sin?$AA@      004350c8     LIBC:fpexcept.obj
 0002:000020cc       ??_C@_04LMBE@sqrt?$AA@     004350cc     LIBC:fpexcept.obj
 0002:000020d4       ??_C@_05BFPO@atan2?$AA@    004350d4     LIBC:fpexcept.obj
 0002:000020dc       ??_C@_04EAGN@atan?$AA@     004350dc     LIBC:fpexcept.obj
 0002:000020e4       ??_C@_04OAMO@acos?$AA@     004350e4     LIBC:fpexcept.obj
 0002:000020ec       ??_C@_04ELFI@asin?$AA@     004350ec     LIBC:fpexcept.obj
 0002:000020f4       ??_C@_04LFAD@tanh?$AA@     004350f4     LIBC:fpexcept.obj
 0002:000020fc       ??_C@_04PFKD@cosh?$AA@     004350fc     LIBC:fpexcept.obj
 0002:00002104       ??_C@_04NPAI@sinh?$AA@     00435104     LIBC:fpexcept.obj
 0002:0000210c       ??_C@_05IJHH@log10?$AA@    0043510c     LIBC:fpexcept.obj
 0002:00002114       ??_C@_03BGKD@log?$AA@      00435114     LIBC:fpexcept.obj
 0002:00002118       ??_C@_03EGFG@pow?$AA@      00435118     LIBC:fpexcept.obj
 0002:0000211c       ??_C@_03CDGJ@exp?$AA@      0043511c     LIBC:fpexcept.obj
 0002:00002120       ??_C@_01A@?$AA?$AA@        00435120     LIBC:a_str.obj
 0002:00002124       ??_C@_13A@?$AA?$AA?$AA?$AA@ 00435124     LIBC:a_str.obj
 0002:00002134       ??_C@_0BD@NJFP@GetLastActivePopup?$AA@ 00435134     LIBC:crtmbox.obj
 0002:00002148       ??_C@_0BA@GILI@GetActiveWindow?$AA@ 00435148     LIBC:crtmbox.obj
 0002:00002158       ??_C@_0M@PKCK@MessageBoxA?$AA@ 00435158     LIBC:crtmbox.obj
 0002:00002164       ??_C@_0L@HKL@user32?4dll?$AA@ 00435164     LIBC:crtmbox.obj
 0002:00002170       ??_C@_07CJME@H?3mm?3ss?$AA@ 00435170     LIBC:strftime.obj
 0002:00002178       ??_C@_0BE@MHI@dddd?0?5MMMM?5dd?0?5yyyy?$AA@ 00435178     LIBC:strftime.obj
 0002:0000218c       ??_C@_06HCAD@M?1d?1yy?$AA@ 0043518c     LIBC:strftime.obj
 0002:00002194       ??_C@_08LIDF@December?$AA@ 00435194     LIBC:strftime.obj
 0002:000021a0       ??_C@_08NJLI@November?$AA@ 004351a0     LIBC:strftime.obj
 0002:000021ac       ??_C@_07IAMM@October?$AA@  004351ac     LIBC:strftime.obj
 0002:000021b4       ??_C@_09MKGD@September?$AA@ 004351b4     LIBC:strftime.obj
 0002:000021c0       ??_C@_06PADP@August?$AA@   004351c0     LIBC:strftime.obj
 0002:000021c8       ??_C@_04PIJO@July?$AA@     004351c8     LIBC:strftime.obj
 0002:000021d0       ??_C@_04ICFP@June?$AA@     004351d0     LIBC:strftime.obj
 0002:000021d8       ??_C@_05JFGC@April?$AA@    004351d8     LIBC:strftime.obj
 0002:000021e0       ??_C@_05FGPD@March?$AA@    004351e0     LIBC:strftime.obj
 0002:000021e8       ??_C@_08PGBA@February?$AA@ 004351e8     LIBC:strftime.obj
 0002:000021f4       ??_C@_07BPKJ@January?$AA@  004351f4     LIBC:strftime.obj
 0002:000021fc       ??_C@_03PGJO@Dec?$AA@      004351fc     LIBC:strftime.obj
 0002:00002200       ??_C@_03PDLM@Nov?$AA@      00435200     LIBC:strftime.obj
 0002:00002204       ??_C@_03BLHK@Oct?$AA@      00435204     LIBC:strftime.obj
 0002:00002208       ??_C@_03DPFM@Sep?$AA@      00435208     LIBC:strftime.obj
 0002:0000220c       ??_C@_03CMCH@Aug?$AA@      0043520c     LIBC:strftime.obj
 0002:00002210       ??_C@_03OBKI@Jul?$AA@      00435210     LIBC:strftime.obj
 0002:00002214       ??_C@_03LEIG@Jun?$AA@      00435214     LIBC:strftime.obj
 0002:00002218       ??_C@_03MGHB@May?$AA@      00435218     LIBC:strftime.obj
 0002:0000221c       ??_C@_03MJJM@Apr?$AA@      0043521c     LIBC:strftime.obj
 0002:00002220       ??_C@_03GNHA@Mar?$AA@      00435220     LIBC:strftime.obj
 0002:00002224       ??_C@_03PICE@Feb?$AA@      00435224     LIBC:strftime.obj
 0002:00002228       ??_C@_03IEIF@Jan?$AA@      00435228     LIBC:strftime.obj
 0002:0000222c       ??_C@_08FAKH@Saturday?$AA@ 0043522c     LIBC:strftime.obj
 0002:00002238       ??_C@_06ONCK@Friday?$AA@   00435238     LIBC:strftime.obj
 0002:00002240       ??_C@_08CCFO@Thursday?$AA@ 00435240     LIBC:strftime.obj
 0002:0000224c       ??_C@_09PBIN@Wednesday?$AA@ 0043524c     LIBC:strftime.obj
 0002:00002258       ??_C@_07BMBC@Tuesday?$AA@  00435258     LIBC:strftime.obj
 0002:00002260       ??_C@_06CHLK@Monday?$AA@   00435260     LIBC:strftime.obj
 0002:00002268       ??_C@_06OOEM@Sunday?$AA@   00435268     LIBC:strftime.obj
 0002:00002270       ??_C@_03MPKK@Sat?$AA@      00435270     LIBC:strftime.obj
 0002:00002274       ??_C@_03FINJ@Fri?$AA@      00435274     LIBC:strftime.obj
 0002:00002278       ??_C@_03HIKC@Thu?$AA@      00435278     LIBC:strftime.obj
 0002:0000227c       ??_C@_03HECK@Wed?$AA@      0043527c     LIBC:strftime.obj
 0002:00002280       ??_C@_03ECCP@Tue?$AA@      00435280     LIBC:strftime.obj
 0002:00002284       ??_C@_03PIEP@Mon?$AA@      00435284     LIBC:strftime.obj
 0002:00002288       ??_C@_03FHEP@Sun?$AA@      00435288     LIBC:strftime.obj
 0002:0000228c       ??_C@_06PAPI@1?$CDQNAN?$AA@ 0043528c     LIBC:x10fout.obj
 0002:00002294       ??_C@_05BGNL@1?$CDINF?$AA@ 00435294     LIBC:x10fout.obj
 0002:0000229c       ??_C@_05EDPF@1?$CDIND?$AA@ 0043529c     LIBC:x10fout.obj
 0002:000022a4       ??_C@_06LKFM@1?$CDSNAN?$AA@ 004352a4     LIBC:x10fout.obj
 0002:000022e0       ___dnames                  004352e0     LIBC:timeset.obj
 0002:000022f8       ___mnames                  004352f8     LIBC:timeset.obj
 0002:00002320       ??_C@_02JHIA@TZ?$AA@       00435320     LIBC:tzset.obj
 0002:00002328       ??_R1A@?0A@A@exception@@8  00435328     DynamicRule.obj
 0002:00002340       ??_R1A@?0A@A@__Named_exception@_STL@@8 00435340     DynamicRule.obj
 0002:00002358       ??_R1A@?0A@A@runtime_error@_STL@@8 00435358     DynamicRule.obj
 0002:00002370       ??_R2runtime_error@_STL@@8 00435370     DynamicRule.obj
 0002:00002380       ??_R3runtime_error@_STL@@8 00435380     DynamicRule.obj
 0002:00002390       ??_R4runtime_error@_STL@@6B@ 00435390     DynamicRule.obj
 0002:000023a8       ??_R2__Named_exception@_STL@@8 004353a8     DynamicRule.obj
 0002:000023b8       ??_R3__Named_exception@_STL@@8 004353b8     DynamicRule.obj
 0002:000023c8       ??_R4__Named_exception@_STL@@6B@ 004353c8     DynamicRule.obj
 0002:000023e0       ??_R1A@?0A@A@KupError@ku_parser@@8 004353e0     Kup.obj
 0002:000023f8       ??_R2KupError@ku_parser@@8 004353f8     Kup.obj
 0002:00002410       ??_R3KupError@ku_parser@@8 00435410     Kup.obj
 0002:00002420       ??_R4KupError@ku_parser@@6B@ 00435420     Kup.obj
 0002:00002438       ??_R1A@?0A@A@ios_base@_STL@@8 00435438     Kup.obj
 0002:00002450       ??_R1A@?0A@A@?$basic_ios@DV?$char_traits@D@_STL@@@_STL@@8 00435450     Kup.obj
 0002:00002468       ??_R2?$basic_ios@DV?$char_traits@D@_STL@@@_STL@@8 00435468     Kup.obj
 0002:00002478       ??_R3?$basic_ios@DV?$char_traits@D@_STL@@@_STL@@8 00435478     Kup.obj
 0002:00002488       ??_R4?$basic_ios@DV?$char_traits@D@_STL@@@_STL@@6B@ 00435488     Kup.obj
 0002:000024a0       ??_R1A@A@3A@ios_base@_STL@@8 004354a0     Kup.obj
 0002:000024b8       ??_R1A@A@3BA@?$basic_ios@DV?$char_traits@D@_STL@@@_STL@@8 004354b8     Kup.obj
 0002:000024d0       ??_R1A@?0A@A@?$basic_istream@DV?$char_traits@D@_STL@@@_STL@@8 004354d0     Kup.obj
 0002:000024e8       ??_R1A@?0A@A@?$basic_ifstream@DV?$char_traits@D@_STL@@@_STL@@8 004354e8     Kup.obj
 0002:00002500       ??_R2?$basic_ifstream@DV?$char_traits@D@_STL@@@_STL@@8 00435500     Kup.obj
 0002:00002518       ??_R3?$basic_ifstream@DV?$char_traits@D@_STL@@@_STL@@8 00435518     Kup.obj
 0002:00002528       ??_R4?$basic_ifstream@DV?$char_traits@D@_STL@@@_STL@@6B@ 00435528     Kup.obj
 0002:00002540       ??_R2?$basic_istream@DV?$char_traits@D@_STL@@@_STL@@8 00435540     Kup.obj
 0002:00002550       ??_R3?$basic_istream@DV?$char_traits@D@_STL@@@_STL@@8 00435550     Kup.obj
 0002:00002560       ??_R4?$basic_istream@DV?$char_traits@D@_STL@@@_STL@@6B@ 00435560     Kup.obj
 0002:00002578       ??_R1A@?0A@A@?$basic_streambuf@DV?$char_traits@D@_STL@@@_STL@@8 00435578     Kup.obj
 0002:00002590       ??_R1A@?0A@A@?$basic_filebuf@DV?$char_traits@D@_STL@@@_STL@@8 00435590     Kup.obj
 0002:000025a8       ??_R2?$basic_filebuf@DV?$char_traits@D@_STL@@@_STL@@8 004355a8     Kup.obj
 0002:000025b8       ??_R3?$basic_filebuf@DV?$char_traits@D@_STL@@@_STL@@8 004355b8     Kup.obj
 0002:000025c8       ??_R4?$basic_filebuf@DV?$char_traits@D@_STL@@@_STL@@6B@ 004355c8     Kup.obj
 0002:000025dc       ??_R2?$basic_streambuf@DV?$char_traits@D@_STL@@@_STL@@8 004355dc     Kup.obj
 0002:000025e8       ??_R3?$basic_streambuf@DV?$char_traits@D@_STL@@@_STL@@8 004355e8     Kup.obj
 0002:000025f8       ??_R4?$basic_streambuf@DV?$char_traits@D@_STL@@@_STL@@6B@ 004355f8     Kup.obj
 0002:00002610       ??_R1A@?0A@A@out_of_range@_STL@@8 00435610     stlport_vc6_static:dll_main.obj
 0002:00002628       ??_R2out_of_range@_STL@@8  00435628     stlport_vc6_static:dll_main.obj
 0002:00002640       ??_R3out_of_range@_STL@@8  00435640     stlport_vc6_static:dll_main.obj
 0002:00002650       ??_R4out_of_range@_STL@@6B@ 00435650     stlport_vc6_static:dll_main.obj
 0002:00002668       ??_R1A@?0A@A@logic_error@_STL@@8 00435668     stlport_vc6_static:dll_main.obj
 0002:00002680       ??_R2logic_error@_STL@@8   00435680     stlport_vc6_static:dll_main.obj
 0002:00002690       ??_R3logic_error@_STL@@8   00435690     stlport_vc6_static:dll_main.obj
 0002:000026a0       ??_R4logic_error@_STL@@6B@ 004356a0     stlport_vc6_static:dll_main.obj
 0002:000026b8       ??_R1A@?0A@A@length_error@_STL@@8 004356b8     stlport_vc6_static:dll_main.obj
 0002:000026d0       ??_R2length_error@_STL@@8  004356d0     stlport_vc6_static:dll_main.obj
 0002:000026e8       ??_R3length_error@_STL@@8  004356e8     stlport_vc6_static:dll_main.obj
 0002:000026f8       ??_R4length_error@_STL@@6B@ 004356f8     stlport_vc6_static:dll_main.obj
 0002:00002710       ??_R1A@?0A@A@_Locale_impl@_STL@@8 00435710     stlport_vc6_static:locale_impl.obj
 0002:00002728       ??_R2_Locale_impl@_STL@@8  00435728     stlport_vc6_static:locale_impl.obj
 0002:00002730       ??_R3_Locale_impl@_STL@@8  00435730     stlport_vc6_static:locale_impl.obj
 0002:00002740       ??_R4_Locale_impl@_STL@@6B@ 00435740     stlport_vc6_static:locale_impl.obj
 0002:00002758       ??_R1A@?0A@A@bad_cast@@8   00435758     stlport_vc6_static:locale_impl.obj
 0002:00002770       ??_R2bad_cast@@8           00435770     stlport_vc6_static:locale_impl.obj
 0002:00002780       ??_R3bad_cast@@8           00435780     stlport_vc6_static:locale_impl.obj
 0002:00002790       ??_R4bad_cast@@6B@         00435790     stlport_vc6_static:locale_impl.obj
 0002:000027a8       ??_R2facet@locale@_STL@@8  004357a8     stlport_vc6_static:locale_impl.obj
 0002:000027b8       ??_R3facet@locale@_STL@@8  004357b8     stlport_vc6_static:locale_impl.obj
 0002:000027c8       ??_R4facet@locale@_STL@@6B@ 004357c8     stlport_vc6_static:locale_impl.obj
 0002:000027e0       ??_R1A@?0A@A@?$num_get@GV?$istreambuf_iterator@GV?$char_traits@G@_STL@@@_STL@@@_STL@@8 004357e0     stlport_vc6_static:locale_impl.obj
 0002:000027f8       ??_R2?$num_get@GV?$istreambuf_iterator@GV?$char_traits@G@_STL@@@_STL@@@_STL@@8 004357f8     stlport_vc6_static:locale_impl.obj
 0002:00002808       ??_R3?$num_get@GV?$istreambuf_iterator@GV?$char_traits@G@_STL@@@_STL@@@_STL@@8 00435808     stlport_vc6_static:locale_impl.obj
 0002:00002818       ??_R4?$num_get@GV?$istreambuf_iterator@GV?$char_traits@G@_STL@@@_STL@@@_STL@@6B@ 00435818     stlport_vc6_static:locale_impl.obj
 0002:00002830       ??_R1A@?0A@A@?$collate@G@_STL@@8 00435830     stlport_vc6_static:locale_impl.obj
 0002:00002848       ??_R2?$collate@G@_STL@@8   00435848     stlport_vc6_static:locale_impl.obj
 0002:00002858       ??_R3?$collate@G@_STL@@8   00435858     stlport_vc6_static:locale_impl.obj
 0002:00002868       ??_R4?$collate@G@_STL@@6B@ 00435868     stlport_vc6_static:locale_impl.obj
 0002:00002880       ??_R1M@?0A@A@ctype_base@_STL@@8 00435880     stlport_vc6_static:locale_impl.obj
 0002:00002898       ??_R1A@?0A@A@?$ctype@G@_STL@@8 00435898     stlport_vc6_static:locale_impl.obj
 0002:000028b0       ??_R2?$ctype@G@_STL@@8     004358b0     stlport_vc6_static:locale_impl.obj
 0002:000028c8       ??_R3?$ctype@G@_STL@@8     004358c8     stlport_vc6_static:locale_impl.obj
 0002:000028d8       ??_R4?$ctype@G@_STL@@6B@   004358d8     stlport_vc6_static:locale_impl.obj
 0002:000028f0       ??_R1A@?0A@A@?$collate@D@_STL@@8 004358f0     stlport_vc6_static:locale_impl.obj
 0002:00002908       ??_R2?$collate@D@_STL@@8   00435908     stlport_vc6_static:locale_impl.obj
 0002:00002918       ??_R3?$collate@D@_STL@@8   00435918     stlport_vc6_static:locale_impl.obj
 0002:00002928       ??_R4?$collate@D@_STL@@6B@ 00435928     stlport_vc6_static:locale_impl.obj
 0002:00002940       ??_R1A@?0A@A@?$money_put@DV?$ostreambuf_iterator@DV?$char_traits@D@_STL@@@_STL@@@_STL@@8 00435940     stlport_vc6_static:locale_impl.obj
 0002:00002958       ??_R2?$money_put@DV?$ostreambuf_iterator@DV?$char_traits@D@_STL@@@_STL@@@_STL@@8 00435958     stlport_vc6_static:locale_impl.obj
 0002:00002968       ??_R3?$money_put@DV?$ostreambuf_iterator@DV?$char_traits@D@_STL@@@_STL@@@_STL@@8 00435968     stlport_vc6_static:locale_impl.obj
 0002:00002978       ??_R4?$money_put@DV?$ostreambuf_iterator@DV?$char_traits@D@_STL@@@_STL@@@_STL@@6B@ 00435978     stlport_vc6_static:locale_impl.obj
 0002:00002990       ??_R1A@?0A@A@?$time_put@DV?$ostreambuf_iterator@DV?$char_traits@D@_STL@@@_STL@@@_STL@@8 00435990     stlport_vc6_static:locale_impl.obj
 0002:000029a8       ??_R2?$time_put@DV?$ostreambuf_iterator@DV?$char_traits@D@_STL@@@_STL@@@_STL@@8 004359a8     stlport_vc6_static:locale_impl.obj
 0002:000029c0       ??_R3?$time_put@DV?$ostreambuf_iterator@DV?$char_traits@D@_STL@@@_STL@@@_STL@@8 004359c0     stlport_vc6_static:locale_impl.obj
 0002:000029d0       ??_R4?$time_put@DV?$ostreambuf_iterator@DV?$char_traits@D@_STL@@@_STL@@@_STL@@6B@ 004359d0     stlport_vc6_static:locale_impl.obj
 0002:000029e8       ??_R1A@?0A@A@?$money_get@GV?$istreambuf_iterator@GV?$char_traits@G@_STL@@@_STL@@@_STL@@8 004359e8     stlport_vc6_static:locale_impl.obj
 0002:00002a00       ??_R2?$money_get@GV?$istreambuf_iterator@GV?$char_traits@G@_STL@@@_STL@@@_STL@@8 00435a00     stlport_vc6_static:locale_impl.obj
 0002:00002a10       ??_R3?$money_get@GV?$istreambuf_iterator@GV?$char_traits@G@_STL@@@_STL@@@_STL@@8 00435a10     stlport_vc6_static:locale_impl.obj
 0002:00002a20       ??_R4?$money_get@GV?$istreambuf_iterator@GV?$char_traits@G@_STL@@@_STL@@@_STL@@6B@ 00435a20     stlport_vc6_static:locale_impl.obj
 0002:00002a38       ??_R1A@?0A@A@?$numpunct@D@_STL@@8 00435a38     stlport_vc6_static:locale_impl.obj
 0002:00002a50       ??_R2?$numpunct@D@_STL@@8  00435a50     stlport_vc6_static:locale_impl.obj
 0002:00002a60       ??_R3?$numpunct@D@_STL@@8  00435a60     stlport_vc6_static:locale_impl.obj
 0002:00002a70       ??_R4?$numpunct@D@_STL@@6B@ 00435a70     stlport_vc6_static:locale_impl.obj
 0002:00002a88       ??_R1A@?0A@A@?$num_put@DV?$ostreambuf_iterator@DV?$char_traits@D@_STL@@@_STL@@@_STL@@8 00435a88     stlport_vc6_static:locale_impl.obj
 0002:00002aa0       ??_R2?$num_put@DV?$ostreambuf_iterator@DV?$char_traits@D@_STL@@@_STL@@@_STL@@8 00435aa0     stlport_vc6_static:locale_impl.obj
 0002:00002ab0       ??_R3?$num_put@DV?$ostreambuf_iterator@DV?$char_traits@D@_STL@@@_STL@@@_STL@@8 00435ab0     stlport_vc6_static:locale_impl.obj
 0002:00002ac0       ??_R4?$num_put@DV?$ostreambuf_iterator@DV?$char_traits@D@_STL@@@_STL@@@_STL@@6B@ 00435ac0     stlport_vc6_static:locale_impl.obj
 0002:00002ad8       ??_R1A@?0A@A@?$codecvt@GDH@_STL@@8 00435ad8     stlport_vc6_static:locale_impl.obj
 0002:00002af0       ??_R2?$codecvt@GDH@_STL@@8 00435af0     stlport_vc6_static:locale_impl.obj
 0002:00002b08       ??_R3?$codecvt@GDH@_STL@@8 00435b08     stlport_vc6_static:locale_impl.obj
 0002:00002b18       ??_R4?$codecvt@GDH@_STL@@6B@ 00435b18     stlport_vc6_static:locale_impl.obj
 0002:00002b30       ??_R1A@?0A@A@?$money_get@DV?$istreambuf_iterator@DV?$char_traits@D@_STL@@@_STL@@@_STL@@8 00435b30     stlport_vc6_static:locale_impl.obj
 0002:00002b48       ??_R2?$money_get@DV?$istreambuf_iterator@DV?$char_traits@D@_STL@@@_STL@@@_STL@@8 00435b48     stlport_vc6_static:locale_impl.obj
 0002:00002b58       ??_R3?$money_get@DV?$istreambuf_iterator@DV?$char_traits@D@_STL@@@_STL@@@_STL@@8 00435b58     stlport_vc6_static:locale_impl.obj
 0002:00002b68       ??_R4?$money_get@DV?$istreambuf_iterator@DV?$char_traits@D@_STL@@@_STL@@@_STL@@6B@ 00435b68     stlport_vc6_static:locale_impl.obj
 0002:00002b80       ??_R1A@?0A@A@?$time_get@GV?$istreambuf_iterator@GV?$char_traits@G@_STL@@@_STL@@@_STL@@8 00435b80     stlport_vc6_static:locale_impl.obj
 0002:00002b98       ??_R2?$time_get@GV?$istreambuf_iterator@GV?$char_traits@G@_STL@@@_STL@@@_STL@@8 00435b98     stlport_vc6_static:locale_impl.obj
 0002:00002bb0       ??_R3?$time_get@GV?$istreambuf_iterator@GV?$char_traits@G@_STL@@@_STL@@@_STL@@8 00435bb0     stlport_vc6_static:locale_impl.obj
 0002:00002bc0       ??_R4?$time_get@GV?$istreambuf_iterator@GV?$char_traits@G@_STL@@@_STL@@@_STL@@6B@ 00435bc0     stlport_vc6_static:locale_impl.obj
 0002:00002bd8       ??_R1A@?0A@A@?$numpunct@G@_STL@@8 00435bd8     stlport_vc6_static:locale_impl.obj
 0002:00002bf0       ??_R2?$numpunct@G@_STL@@8  00435bf0     stlport_vc6_static:locale_impl.obj
 0002:00002c00       ??_R3?$numpunct@G@_STL@@8  00435c00     stlport_vc6_static:locale_impl.obj
 0002:00002c10       ??_R4?$numpunct@G@_STL@@6B@ 00435c10     stlport_vc6_static:locale_impl.obj
 0002:00002c28       ??_R1A@?0A@A@?$time_get@DV?$istreambuf_iterator@DV?$char_traits@D@_STL@@@_STL@@@_STL@@8 00435c28     stlport_vc6_static:locale_impl.obj
 0002:00002c40       ??_R2?$time_get@DV?$istreambuf_iterator@DV?$char_traits@D@_STL@@@_STL@@@_STL@@8 00435c40     stlport_vc6_static:locale_impl.obj
 0002:00002c58       ??_R3?$time_get@DV?$istreambuf_iterator@DV?$char_traits@D@_STL@@@_STL@@@_STL@@8 00435c58     stlport_vc6_static:locale_impl.obj
 0002:00002c68       ??_R4?$time_get@DV?$istreambuf_iterator@DV?$char_traits@D@_STL@@@_STL@@@_STL@@6B@ 00435c68     stlport_vc6_static:locale_impl.obj
 0002:00002c80       ??_R1M@?0A@A@codecvt_base@_STL@@8 00435c80     stlport_vc6_static:locale_impl.obj
 0002:00002c98       ??_R1A@?0A@A@?$codecvt@DDH@_STL@@8 00435c98     stlport_vc6_static:locale_impl.obj
 0002:00002cb0       ??_R2?$codecvt@DDH@_STL@@8 00435cb0     stlport_vc6_static:locale_impl.obj
 0002:00002cc8       ??_R3?$codecvt@DDH@_STL@@8 00435cc8     stlport_vc6_static:locale_impl.obj
 0002:00002cd8       ??_R4?$codecvt@DDH@_STL@@6B@ 00435cd8     stlport_vc6_static:locale_impl.obj
 0002:00002cf0       ??_R1A@?0A@A@?$num_put@GV?$ostreambuf_iterator@GV?$char_traits@G@_STL@@@_STL@@@_STL@@8 00435cf0     stlport_vc6_static:locale_impl.obj
 0002:00002d08       ??_R2?$num_put@GV?$ostreambuf_iterator@GV?$char_traits@G@_STL@@@_STL@@@_STL@@8 00435d08     stlport_vc6_static:locale_impl.obj
 0002:00002d18       ??_R3?$num_put@GV?$ostreambuf_iterator@GV?$char_traits@G@_STL@@@_STL@@@_STL@@8 00435d18     stlport_vc6_static:locale_impl.obj
 0002:00002d28       ??_R4?$num_put@GV?$ostreambuf_iterator@GV?$char_traits@G@_STL@@@_STL@@@_STL@@6B@ 00435d28     stlport_vc6_static:locale_impl.obj
 0002:00002d40       ??_R1A@?0A@A@?$num_get@DV?$istreambuf_iterator@DV?$char_traits@D@_STL@@@_STL@@@_STL@@8 00435d40     stlport_vc6_static:locale_impl.obj
 0002:00002d58       ??_R2?$num_get@DV?$istreambuf_iterator@DV?$char_traits@D@_STL@@@_STL@@@_STL@@8 00435d58     stlport_vc6_static:locale_impl.obj
 0002:00002d68       ??_R3?$num_get@DV?$istreambuf_iterator@DV?$char_traits@D@_STL@@@_STL@@@_STL@@8 00435d68     stlport_vc6_static:locale_impl.obj
 0002:00002d78       ??_R4?$num_get@DV?$istreambuf_iterator@DV?$char_traits@D@_STL@@@_STL@@@_STL@@6B@ 00435d78     stlport_vc6_static:locale_impl.obj
 0002:00002d90       ??_R1A@?0A@A@?$money_put@GV?$ostreambuf_iterator@GV?$char_traits@G@_STL@@@_STL@@@_STL@@8 00435d90     stlport_vc6_static:locale_impl.obj
 0002:00002da8       ??_R2?$money_put@GV?$ostreambuf_iterator@GV?$char_traits@G@_STL@@@_STL@@@_STL@@8 00435da8     stlport_vc6_static:locale_impl.obj
 0002:00002db8       ??_R3?$money_put@GV?$ostreambuf_iterator@GV?$char_traits@G@_STL@@@_STL@@@_STL@@8 00435db8     stlport_vc6_static:locale_impl.obj
 0002:00002dc8       ??_R4?$money_put@GV?$ostreambuf_iterator@GV?$char_traits@G@_STL@@@_STL@@@_STL@@6B@ 00435dc8     stlport_vc6_static:locale_impl.obj
 0002:00002de0       ??_R1M@?0A@A@time_base@_STL@@8 00435de0     stlport_vc6_static:locale_impl.obj
 0002:00002df8       ??_R13?0A@8_Refcount_Base@_STL@@8 00435df8     stlport_vc6_static:locale_impl.obj
 0002:00002e10       ??_R1A@?0A@A@facet@locale@_STL@@8 00435e10     stlport_vc6_static:locale_impl.obj
 0002:00002e28       ??_R1A@?0A@A@?$time_put@GV?$ostreambuf_iterator@GV?$char_traits@G@_STL@@@_STL@@@_STL@@8 00435e28     stlport_vc6_static:locale_impl.obj
 0002:00002e40       ??_R2?$time_put@GV?$ostreambuf_iterator@GV?$char_traits@G@_STL@@@_STL@@@_STL@@8 00435e40     stlport_vc6_static:locale_impl.obj
 0002:00002e58       ??_R3?$time_put@GV?$ostreambuf_iterator@GV?$char_traits@G@_STL@@@_STL@@@_STL@@8 00435e58     stlport_vc6_static:locale_impl.obj
 0002:00002e68       ??_R4?$time_put@GV?$ostreambuf_iterator@GV?$char_traits@G@_STL@@@_STL@@@_STL@@6B@ 00435e68     stlport_vc6_static:locale_impl.obj
 0002:00002e80       ??_R1A@?0A@A@?$basic_ostream@DV?$char_traits@D@_STL@@@_STL@@8 00435e80     stlport_vc6_static:iostream.obj
 0002:00002e98       ??_R2?$basic_ostream@DV?$char_traits@D@_STL@@@_STL@@8 00435e98     stlport_vc6_static:iostream.obj
 0002:00002ea8       ??_R3?$basic_ostream@DV?$char_traits@D@_STL@@@_STL@@8 00435ea8     stlport_vc6_static:iostream.obj
 0002:00002eb8       ??_R4?$basic_ostream@DV?$char_traits@D@_STL@@@_STL@@6B@ 00435eb8     stlport_vc6_static:iostream.obj
 0002:00002ed0       ??_R1A@A@3BA@?$basic_ios@GV?$char_traits@G@_STL@@@_STL@@8 00435ed0     stlport_vc6_static:iostream.obj
 0002:00002ee8       ??_R1A@?0A@A@?$basic_istream@GV?$char_traits@G@_STL@@@_STL@@8 00435ee8     stlport_vc6_static:iostream.obj
 0002:00002f00       ??_R2?$basic_istream@GV?$char_traits@G@_STL@@@_STL@@8 00435f00     stlport_vc6_static:iostream.obj
 0002:00002f10       ??_R3?$basic_istream@GV?$char_traits@G@_STL@@@_STL@@8 00435f10     stlport_vc6_static:iostream.obj
 0002:00002f20       ??_R4?$basic_istream@GV?$char_traits@G@_STL@@@_STL@@6B@ 00435f20     stlport_vc6_static:iostream.obj
 0002:00002f38       ??_R1A@?0A@A@?$basic_ostream@GV?$char_traits@G@_STL@@@_STL@@8 00435f38     stlport_vc6_static:iostream.obj
 0002:00002f50       ??_R2?$basic_ostream@GV?$char_traits@G@_STL@@@_STL@@8 00435f50     stlport_vc6_static:iostream.obj
 0002:00002f60       ??_R3?$basic_ostream@GV?$char_traits@G@_STL@@@_STL@@8 00435f60     stlport_vc6_static:iostream.obj
 0002:00002f70       ??_R4?$basic_ostream@GV?$char_traits@G@_STL@@@_STL@@6B@ 00435f70     stlport_vc6_static:iostream.obj
 0002:00002f88       ??_R1A@?0A@A@?$basic_filebuf@GV?$char_traits@G@_STL@@@_STL@@8 00435f88     stlport_vc6_static:iostream.obj
 0002:00002fa0       ??_R2?$basic_filebuf@GV?$char_traits@G@_STL@@@_STL@@8 00435fa0     stlport_vc6_static:iostream.obj
 0002:00002fb0       ??_R3?$basic_filebuf@GV?$char_traits@G@_STL@@@_STL@@8 00435fb0     stlport_vc6_static:iostream.obj
 0002:00002fc0       ??_R4?$basic_filebuf@GV?$char_traits@G@_STL@@@_STL@@6B@ 00435fc0     stlport_vc6_static:iostream.obj
 0002:00002fd8       ??_R1A@?0A@A@?$basic_streambuf@GV?$char_traits@G@_STL@@@_STL@@8 00435fd8     stlport_vc6_static:iostream.obj
 0002:00002ff0       ??_R2?$basic_streambuf@GV?$char_traits@G@_STL@@@_STL@@8 00435ff0     stlport_vc6_static:iostream.obj
 0002:00002ff8       ??_R3?$basic_streambuf@GV?$char_traits@G@_STL@@@_STL@@8 00435ff8     stlport_vc6_static:iostream.obj
 0002:00003008       ??_R4?$basic_streambuf@GV?$char_traits@G@_STL@@@_STL@@6B@ 00436008     stlport_vc6_static:iostream.obj
 0002:00003020       ??_R1A@?0A@A@stdio_ostreambuf@_SgI@@8 00436020     stlport_vc6_static:iostream.obj
 0002:00003038       ??_R2stdio_ostreambuf@_SgI@@8 00436038     stlport_vc6_static:iostream.obj
 0002:00003048       ??_R3stdio_ostreambuf@_SgI@@8 00436048     stlport_vc6_static:iostream.obj
 0002:00003058       ??_R4stdio_ostreambuf@_SgI@@6B@ 00436058     stlport_vc6_static:iostream.obj
 0002:00003070       ??_R1A@?0A@A@stdio_streambuf_base@_SgI@@8 00436070     stlport_vc6_static:iostream.obj
 0002:00003088       ??_R1A@?0A@A@stdio_istreambuf@_SgI@@8 00436088     stlport_vc6_static:iostream.obj
 0002:000030a0       ??_R2stdio_istreambuf@_SgI@@8 004360a0     stlport_vc6_static:iostream.obj
 0002:000030b0       ??_R3stdio_istreambuf@_SgI@@8 004360b0     stlport_vc6_static:iostream.obj
 0002:000030c0       ??_R4stdio_istreambuf@_SgI@@6B@ 004360c0     stlport_vc6_static:iostream.obj
 0002:000030d8       ??_R1A@?0A@A@?$basic_ios@GV?$char_traits@G@_STL@@@_STL@@8 004360d8     stlport_vc6_static:iostream.obj
 0002:000030f0       ??_R2?$basic_ios@GV?$char_traits@G@_STL@@@_STL@@8 004360f0     stlport_vc6_static:iostream.obj
 0002:00003100       ??_R3?$basic_ios@GV?$char_traits@G@_STL@@@_STL@@8 00436100     stlport_vc6_static:iostream.obj
 0002:00003110       ??_R4?$basic_ios@GV?$char_traits@G@_STL@@@_STL@@6B@ 00436110     stlport_vc6_static:iostream.obj
 0002:00003128       ??_R1A@?0A@A@failure@ios_base@_STL@@8 00436128     stlport_vc6_static:ios.obj
 0002:00003140       ??_R2failure@ios_base@_STL@@8 00436140     stlport_vc6_static:ios.obj
 0002:00003150       ??_R3failure@ios_base@_STL@@8 00436150     stlport_vc6_static:ios.obj
 0002:00003160       ??_R4failure@ios_base@_STL@@6B@ 00436160     stlport_vc6_static:ios.obj
 0002:00003174       ??_R2ios_base@_STL@@8      00436174     stlport_vc6_static:ios.obj
 0002:00003180       ??_R3ios_base@_STL@@8      00436180     stlport_vc6_static:ios.obj
 0002:00003190       ??_R4ios_base@_STL@@6B@    00436190     stlport_vc6_static:ios.obj
 0002:000031a8       ??_R1A@?0A@A@?$ctype@D@_STL@@8 004361a8     stlport_vc6_static:ctype.obj
 0002:000031c0       ??_R2?$ctype@D@_STL@@8     004361c0     stlport_vc6_static:ctype.obj
 0002:000031d8       ??_R3?$ctype@D@_STL@@8     004361d8     stlport_vc6_static:ctype.obj
 0002:000031e8       ??_R4?$ctype@D@_STL@@6B@   004361e8     stlport_vc6_static:ctype.obj
 0002:00003200       ??_R1M@?0A@A@messages_base@_STL@@8 00436200     stlport_vc6_static:messages.obj
 0002:00003218       ??_R1A@?0A@A@?$messages@D@_STL@@8 00436218     stlport_vc6_static:messages.obj
 0002:00003230       ??_R2?$messages@D@_STL@@8  00436230     stlport_vc6_static:messages.obj
 0002:00003248       ??_R3?$messages@D@_STL@@8  00436248     stlport_vc6_static:messages.obj
 0002:00003258       ??_R4?$messages@D@_STL@@6B@ 00436258     stlport_vc6_static:messages.obj
 0002:00003270       ??_R1A@?0A@A@_Messages@_STL@@8 00436270     stlport_vc6_static:messages.obj
 0002:00003288       ??_R2_Messages@_STL@@8     00436288     stlport_vc6_static:messages.obj
 0002:00003290       ??_R3_Messages@_STL@@8     00436290     stlport_vc6_static:messages.obj
 0002:000032a0       ??_R4_Messages@_STL@@6B@   004362a0     stlport_vc6_static:messages.obj
 0002:000032b8       ??_R1A@?0A@A@?$messages@G@_STL@@8 004362b8     stlport_vc6_static:messages.obj
 0002:000032d0       ??_R2?$messages@G@_STL@@8  004362d0     stlport_vc6_static:messages.obj
 0002:000032e8       ??_R3?$messages@G@_STL@@8  004362e8     stlport_vc6_static:messages.obj
 0002:000032f8       ??_R4?$messages@G@_STL@@6B@ 004362f8     stlport_vc6_static:messages.obj
 0002:00003310       ??_R1M@?0A@A@money_base@_STL@@8 00436310     stlport_vc6_static:monetary.obj
 0002:00003328       ??_R1A@?0A@A@?$moneypunct@D$00@_STL@@8 00436328     stlport_vc6_static:monetary.obj
 0002:00003340       ??_R2?$moneypunct@D$00@_STL@@8 00436340     stlport_vc6_static:monetary.obj
 0002:00003358       ??_R3?$moneypunct@D$00@_STL@@8 00436358     stlport_vc6_static:monetary.obj
 0002:00003368       ??_R4?$moneypunct@D$00@_STL@@6B@ 00436368     stlport_vc6_static:monetary.obj
 0002:00003380       ??_R1A@?0A@A@?$moneypunct@D$0A@@_STL@@8 00436380     stlport_vc6_static:monetary.obj
 0002:00003398       ??_R2?$moneypunct@D$0A@@_STL@@8 00436398     stlport_vc6_static:monetary.obj
 0002:000033b0       ??_R3?$moneypunct@D$0A@@_STL@@8 004363b0     stlport_vc6_static:monetary.obj
 0002:000033c0       ??_R4?$moneypunct@D$0A@@_STL@@6B@ 004363c0     stlport_vc6_static:monetary.obj
 0002:000033d8       ??_R1A@?0A@A@?$moneypunct@G$00@_STL@@8 004363d8     stlport_vc6_static:monetary.obj
 0002:000033f0       ??_R2?$moneypunct@G$00@_STL@@8 004363f0     stlport_vc6_static:monetary.obj
 0002:00003408       ??_R3?$moneypunct@G$00@_STL@@8 00436408     stlport_vc6_static:monetary.obj
 0002:00003418       ??_R4?$moneypunct@G$00@_STL@@6B@ 00436418     stlport_vc6_static:monetary.obj
 0002:00003430       ??_R1A@?0A@A@?$moneypunct@G$0A@@_STL@@8 00436430     stlport_vc6_static:monetary.obj
 0002:00003448       ??_R2?$moneypunct@G$0A@@_STL@@8 00436448     stlport_vc6_static:monetary.obj
 0002:00003460       ??_R3?$moneypunct@G$0A@@_STL@@8 00436460     stlport_vc6_static:monetary.obj
 0002:00003470       ??_R4?$moneypunct@G$0A@@_STL@@6B@ 00436470     stlport_vc6_static:monetary.obj
 0002:00003488       ??_R2stdio_streambuf_base@_SgI@@8 00436488     stlport_vc6_static:stdio_streambuf.obj
 0002:00003498       ??_R3stdio_streambuf_base@_SgI@@8 00436498     stlport_vc6_static:stdio_streambuf.obj
 0002:000034a8       ??_R4stdio_streambuf_base@_SgI@@6B@ 004364a8     stlport_vc6_static:stdio_streambuf.obj
 0002:000034bc       ??_R2exception@@8          004364bc     LIBC:stdexcpt.obj
 0002:000034c8       ??_R3exception@@8          004364c8     LIBC:stdexcpt.obj
 0002:000034d8       ??_R4exception@@6B@        004364d8     LIBC:stdexcpt.obj
 0002:000034f0       ??_R1A@?0A@A@type_info@@8  004364f0     LIBC:typinfo.obj
 0002:00003508       ??_R2type_info@@8          00436508     LIBC:typinfo.obj
 0002:00003510       ??_R3type_info@@8          00436510     LIBC:typinfo.obj
 0002:00003520       ??_R4type_info@@6B@        00436520     LIBC:typinfo.obj
 0002:00003538       ??_R1A@?0A@A@bad_typeid@@8 00436538     LIBC:rtti.obj
 0002:00003550       ??_R1A@?0A@A@__non_rtti_object@@8 00436550     LIBC:rtti.obj
 0002:00003568       ??_R2__non_rtti_object@@8  00436568     LIBC:rtti.obj
 0002:00003578       ??_R3__non_rtti_object@@8  00436578     LIBC:rtti.obj
 0002:00003588       ??_R4__non_rtti_object@@6B@ 00436588     LIBC:rtti.obj
 0002:000035a0       ??_R2bad_typeid@@8         004365a0     LIBC:rtti.obj
 0002:000035b0       ??_R3bad_typeid@@8         004365b0     LIBC:rtti.obj
 0002:000035c0       ??_R4bad_typeid@@6B@       004365c0     LIBC:rtti.obj
 0002:00003628       __CT??_R0?AVexception@@@8??0exception@@QAE@ABV0@@Z12 00436628     DynamicRule.obj
 0002:00003648       __CT??_R0?AV__Named_exception@_STL@@@8??0__Named_exception@_STL@@QAE@ABV01@@Z268 00436648     DynamicRule.obj
 0002:00003668       __CT??_R0?AVruntime_error@_STL@@@8??0runtime_error@_STL@@QAE@ABV01@@Z268 00436668     DynamicRule.obj
 0002:00003688       __CTA3?AVruntime_error@_STL@@ 00436688     DynamicRule.obj
 0002:00003698       __TI3?AVruntime_error@_STL@@ 00436698     DynamicRule.obj
 0002:00003998       __CT??_R0?AVKupError@ku_parser@@@8??0KupError@ku_parser@@QAE@ABV01@@Z268 00436998     Kup.obj
 0002:000039b8       __CTA4?AVKupError@ku_parser@@ 004369b8     Kup.obj
 0002:000039d0       __TI4?AVKupError@ku_parser@@ 004369d0     Kup.obj
 0002:000045f8       __CT??_R0?AVlogic_error@_STL@@@8??0logic_error@_STL@@QAE@ABV01@@Z268 004375f8     stlport_vc6_static:dll_main.obj
 0002:00004618       __CT??_R0?AVout_of_range@_STL@@@8??0out_of_range@_STL@@QAE@ABV01@@Z268 00437618     stlport_vc6_static:dll_main.obj
 0002:00004638       __CTA4?AVout_of_range@_STL@@ 00437638     stlport_vc6_static:dll_main.obj
 0002:00004650       __TI4?AVout_of_range@_STL@@ 00437650     stlport_vc6_static:dll_main.obj
 0002:000046a0       __CT??_R0?AVlength_error@_STL@@@8??0length_error@_STL@@QAE@ABV01@@Z268 004376a0     stlport_vc6_static:dll_main.obj
 0002:000046c0       __CTA4?AVlength_error@_STL@@ 004376c0     stlport_vc6_static:dll_main.obj
 0002:000046d8       __TI4?AVlength_error@_STL@@ 004376d8     stlport_vc6_static:dll_main.obj
 0002:00004808       __CT??_R0?AVbad_cast@@@8??0bad_cast@@QAE@ABV0@@Z12 00437808     stlport_vc6_static:locale_impl.obj
 0002:00004828       __CTA2?AVbad_cast@@        00437828     stlport_vc6_static:locale_impl.obj
 0002:00004838       __TI2?AVbad_cast@@         00437838     stlport_vc6_static:locale_impl.obj
 0002:00005c78       __CT??_R0?AVfailure@ios_base@_STL@@@8??0failure@ios_base@_STL@@QAE@ABV012@@Z268 00438c78     stlport_vc6_static:ios.obj
 0002:00005c98       __CTA3?AVfailure@ios_base@_STL@@ 00438c98     stlport_vc6_static:ios.obj
 0002:00005ca8       __TI3?AVfailure@ios_base@_STL@@ 00438ca8     stlport_vc6_static:ios.obj
 0002:000063b0       __CT??_R0?AVbad_typeid@@@8??0bad_typeid@@QAE@ABV0@@Z12 004393b0     LIBC:rtti.obj
 0002:000063d0       __CT??_R0?AV__non_rtti_object@@@8??0__non_rtti_object@@QAE@ABV0@@Z12 004393d0     LIBC:rtti.obj
 0002:000063f0       __CTA3?AV__non_rtti_object@@ 004393f0     LIBC:rtti.obj
 0002:00006400       __TI3?AV__non_rtti_object@@ 00439400     LIBC:rtti.obj
 0002:00006410       __CTA2?AVbad_typeid@@      00439410     LIBC:rtti.obj
 0002:00006420       __TI2?AVbad_typeid@@       00439420     LIBC:rtti.obj
 0003:00000000       ___xc_a                    0043a000     LIBC:crt0init.obj
 0003:0000004c       ___xc_z                    0043a04c     LIBC:crt0init.obj
 0003:00000050       ___xi_a                    0043a050     LIBC:crt0init.obj
 0003:00000064       ___xi_z                    0043a064     LIBC:crt0init.obj
 0003:00000068       ___xp_a                    0043a068     LIBC:crt0init.obj
 0003:00000070       ___xp_z                    0043a070     LIBC:crt0init.obj
 0003:00000074       ___xt_a                    0043a074     LIBC:crt0init.obj
 0003:0000007c       ___xt_z                    0043a07c     LIBC:crt0init.obj
 0003:00000080       ??_R0?AVexception@@@8      0043a080     DynamicRule.obj
 0003:00000098       ??_R0?AV__Named_exception@_STL@@@8 0043a098     DynamicRule.obj
 0003:000000c0       ??_R0?AVruntime_error@_STL@@@8 0043a0c0     DynamicRule.obj
 0003:000000e4       ??_C@_01BJG@?6?$AA@        0043a0e4     DynamicRule.obj
 0003:000000e8       ??_C@_0L@IGAD@?1?1variable?$AA@ 0043a0e8     DynamicRule.obj
 0003:000000f4       ??_C@_06OOOG@?1?1rule?$AA@ 0043a0f4     DynamicRule.obj
 0003:000000fc       ??_C@_0BI@GGHM@?$LB?T?D?$KC?$LK?s?$LF?$LF?5?A?$LG?$LA?G?$LK?s?$LF?$LF?7?$LB?T?D?$KC?6?$AA@ 0043a0fc     DynamicRule.obj
 0003:00000114       ??_C@_02KCGI@?7?6?$AA@     0043a114     DynamicRule.obj
 0003:00000118       ??_C@_0CJ@LFL@?$FLERR?$FN?5cDynamicRule?3?5Rule?5File?5op@ 0043a118     DynamicRule.obj
 0003:00000144       ??_C@_0BO@DGPB@?6ERROR?$CI?$CFs?$CJ?3?5?F?D?$MA?O?$LP?$KN?$LB?b?$LP?$MA?$LH?y?$CI?$CFs?$CJ?6?$AA@ 0043a144     DynamicRule.obj
 0003:00000164       ??_C@_0BB@LIJN@getRule?5in?5cRule?$AA@ 0043a164     DynamicRule.obj
 0003:00000178       ??_C@_01LHO@r?$AA@         0043a178     DynamicRule.obj
 0003:0000017c       ??_C@_03HHKO@?$CFs?6?$AA@  0043a17c     DynamicRule.obj
 0003:00000180       ??_C@_03IIBH@?$CFs?7?$AA@  0043a180     DynamicRule.obj
 0003:00000184       ??_C@_02DILL@?$CFs?$AA@    0043a184     DynamicRule.obj
 0003:00000188       ??_C@_01LLF@w?$AA@         0043a188     DynamicRule.obj
 0003:0000018c       ??_C@_0M@JBGJ@?$CF7d?7?$CF8d?7?$CFs?6?$AA@ 0043a18c     DynamicRule.obj
 0003:00000198       ??_C@_0EA@CMNG@?$CFs?0?$CFs?0?$CFs?0?$CFs?0?$CFs?0?$CFd?0?$CFd?0?$CFs?0?$CFs?0?$CFs?0?$CFs@ 0043a198     DynamicRule.obj
 0003:000001d8       ??_C@_0DK@MNOE@?$CFs?0?$CFs?0?$CFs?0?$CFs?0?$CFs?0?$CFd?0?$CFd?0?$CFs?0?$CFs?0?$CFs?0?$CFs@ 0043a1d8     DynamicRule.obj
 0003:00000214       ??_C@_01KMAE@?0?$AA@       0043a214     DynamicRule.obj
 0003:00000218       ??_C@_0EA@LCOM@?$CFs?0?$CFs?0?$CFs?0?$CFs?0?$CFs?0?$CFd?0?$CFd?0?$CFs?0?$CFs?0?$CFs?0?$CFs@ 0043a218     DynamicRule.obj
 0003:00000258       ??_C@_0N@LL@basic_string?$AA@ 0043a258     DynamicRule.obj
 0003:00000268       ??_C@_0CA@JOIO@Cannot?5Create?5Hantag?5Instance?4?6?$AA@ 0043a268     KomaWrap.obj
 0003:00000288       ??_C@_0BP@PDEM@Cannot?5loading?5hantag?5engine?4?6?$AA@ 0043a288     KomaWrap.obj
 0003:000002a8       ??_C@_08PABH@prob?4FST?$AA@ 0043a2a8     KomaWrap.obj
 0003:000002b4       ??_C@_08NGKB@prob?4dat?$AA@ 0043a2b4     KomaWrap.obj
 0003:000002c0       ??_C@_0BI@GLDG@Loading?5KomaEngine?4?4OK?6?$AA@ 0043a2c0     KomaWrap.obj
 0003:000002d8       ??_C@_0BN@MPND@Cannot?5loading?5koma?5engine?4?6?$AA@ 0043a2d8     KomaWrap.obj
 0003:000002f8       ??_C@_08DNIF@main?4FST?$AA@ 0043a2f8     KomaWrap.obj
 0003:00000304       ??_C@_08BLDD@main?4dat?$AA@ 0043a304     KomaWrap.obj
 0003:00000310       ??_C@_0P@PMLF@connection?4txt?$AA@ 0043a310     KomaWrap.obj
 0003:00000320       ??_C@_07COPE@tag?4nam?$AA@ 0043a320     KomaWrap.obj
 0003:00000328       ??_C@_0L@KAL@tagout?4nam?$AA@ 0043a328     KomaWrap.obj
 0003:00000334       ??_C@_01PJCK@?4?$AA@       0043a334     KomaWrap.obj
 0003:00000338       ??_C@_02PIMC@?$AN?6?$AA@   0043a338     KomaWrap.obj
 0003:0000033c       ??_C@_01KHHK@?$FO?$AA@     0043a33c     KomaWrap.obj
 0003:00000340       ??_R0?AVKupError@ku_parser@@@8 0043a340     Kup.obj
 0003:00000364       ??_C@_0CK@IACC@?$FLERR?$FN?5Kup?3?5Parser?5Resource?5Setti@ 0043a364     Kup.obj
 0003:00000390       ??_C@_0BJ@HAHG@Loading?5PosCvtTable?4?4OK?6?$AA@ 0043a390     Kup.obj
 0003:000003ac       ??_C@_04EEJB@?7?9?$DO?7?$AA@ 0043a3ac     Kup.obj
 0003:000003b4       ??_C@_0BC@JGKM@parser_poscvt?4txt?$AA@ 0043a3b4     Kup.obj
 0003:000003c8       ??_C@_0BK@KMDC@Loading?5KupDynaRules?4?4OK?6?$AA@ 0043a3c8     Kup.obj
 0003:000003e4       ??_C@_0BD@PFJF@parser_rule_LX?4txt?$AA@ 0043a3e4     Kup.obj
 0003:000003f8       ??_C@_0BE@MEKF@parser_rule_NLX?4txt?$AA@ 0043a3f8     Kup.obj
 0003:0000040c       ??_C@_0BI@FDNK@Loading?5KupLexicon?4?4OK?6?$AA@ 0043a40c     Kup.obj
 0003:00000424       ??_C@_0BG@KLJD@parser_lexicon_LX?4txt?$AA@ 0043a424     Kup.obj
 0003:0000043c       ??_C@_0BH@PDPL@parser_lexicon_NLX?4txt?$AA@ 0043a43c     Kup.obj
 0003:00000454       ??_C@_01FCOA@?5?$AA@       0043a454     Kup.obj
 0003:00000458       ??_C@_0CL@JHHN@?$FLERR?$FN?5StrMaptable?3?5Second?5string@ 0043a458     Kup.obj
 0003:00000484       ??_C@_0CK@LIJI@?$FLERR?$FN?5StrMaptable?3?5First?5string?5@ 0043a484     Kup.obj
 0003:000004b0       ??_C@_0CH@IKLO@?$FLERR?$FN?5StrMaptable?3?5entry?5pattern@ 0043a4b0     Kup.obj
 0003:000004d8       ??_C@_02FCOO@?1?1?$AA@     0043a4d8     Kup.obj
 0003:000004dc       ??_C@_0CI@DIJD@?$FLERR?$FN?5StrMapTable?3?5tablefile?5ope@ 0043a4dc     Kup.obj
 0003:00000504       ??_C@_05LBOD@?$DM?1TD?$DO?$AA@ 0043a504     Kup.obj
 0003:0000050c       ??_C@_0M@FELH@COLSPAN?$DN?$CFd?$DO?$AA@ 0043a50c     Kup.obj
 0003:00000518       ??_C@_0BC@LMMH@?$DMTD?5ALIGN?$DNCENTER?5?$AA@ 0043a518     Kup.obj
 0003:0000052c       ??_C@_07LBLM@?6?$DM?1TR?$DO?6?$AA@ 0043a52c     Kup.obj
 0003:00000534       ??_C@_05GPIH@?$DMTR?$DO?6?$AA@ 0043a534     Kup.obj
 0003:0000053c       ??_C@_09IACH@?$DM?1TABLE?$DO?6?$AA@ 0043a53c     Kup.obj
 0003:00000548       ??_C@_0BP@HOPC@?$DMTABLE?5BORDER?$DN1?5ALIGN?$DNCENTER?$DO?6?$AA@ 0043a548     Kup.obj
 0003:00000568       ??_C@_04NMDP@?$DMBR?$DO?$AA@ 0043a568     Kup.obj
 0003:00000570       ??_C@_04PLBA@?$DM?1B?$DO?$AA@ 0043a570     Kup.obj
 0003:00000578       ??_C@_03CMAJ@VNP?$AA@      0043a578     Kup.obj
 0003:0000057c       ??_C@_03GMPK@?$DMB?$DO?$AA@ 0043a57c     Kup.obj
 0003:00000580       ??_R0?AVios_base@_STL@@@8  0043a580     Kup.obj
 0003:000005a0       ??_R0?AV?$basic_ios@DV?$char_traits@D@_STL@@@_STL@@@8 0043a5a0     Kup.obj
 0003:000005d8       ??_R0?AV?$basic_istream@DV?$char_traits@D@_STL@@@_STL@@@8 0043a5d8     Kup.obj
 0003:00000618       ??_R0?AV?$basic_ifstream@DV?$char_traits@D@_STL@@@_STL@@@8 0043a618     Kup.obj
 0003:00000658       ??_R0?AV?$basic_streambuf@DV?$char_traits@D@_STL@@@_STL@@@8 0043a658     Kup.obj
 0003:00000698       ??_R0?AV?$basic_filebuf@DV?$char_traits@D@_STL@@@_STL@@@8 0043a698     Kup.obj
 0003:000006d4       ??_C@_04PAOA@?5?7?6?$AA?$AA@ 0043a6d4     Lexicon.obj
 0003:000006dc       ??_C@_0BN@JNNP@?$FLERR?$FN?5Lexicon?3?5?F?D?$MA?O?$LP?$KN?$LB?b?5?$LP?$MA?$LH?y?$AA@ 0043a6dc     Lexicon.obj
 0003:000006fc       ??_C@_07LFBG@?$CF7d?7?$CFs?6?$AA@ 0043a6fc     Lexicon.obj
 0003:00000704       ??_C@_05LELA@?$CFs?1?$CFs?$AA@ 0043a704     Lexicon.obj
 0003:00000710       ?m_pos2node@cStaticRule@@0PAU_cnvrt@@A 0043a710     StaticRule.obj
 0003:00000aac       ??_C@_04FIGB@_INT?$AA@     0043aaac     StaticRule.obj
 0003:00000ab4       ??_C@_01PIHH@?$CB?$AA@     0043aab4     StaticRule.obj
 0003:00000ab8       ??_C@_04GOED@_CNJ?$AA@     0043aab8     StaticRule.obj
 0003:00000ac0       ??_C@_02GELO@NP?$AA@       0043aac0     StaticRule.obj
 0003:00000ac4       ??_C@_01KMMP@?$CJ?$AA@     0043aac4     StaticRule.obj
 0003:00000ac8       ??_C@_01GFI@?$CI?$AA@      0043aac8     StaticRule.obj
 0003:00000acc       ??_C@_0DI@CNDN@?6ERROR?$CIcStaticRule?3?3initPhrase?$CJ?3@ 0043aacc     StaticRule.obj
 0003:00000b04       ??_C@_01FIAI@X?$AA@        0043ab04     StaticRule.obj
 0003:00000b08       ??_C@_02PNGA@S?9?$AA@      0043ab08     StaticRule.obj
 0003:00000b0c       ??_C@_04JGBJ@_PRN?$AA@     0043ab0c     StaticRule.obj
 0003:00000b14       ??_C@_03NIED@UNK?$AA@      0043ab14     StaticRule.obj
 0003:00000b18       ??_C@_02CMLD@?5?$CL?$AA@   0043ab18     StaticRule.obj
 0003:00000b1c       ??_C@_01FDLN@?1?$AA@       0043ab1c     StaticRule.obj
 0003:00000b20       ??_C@_0DL@GNAP@?6ERROR?$CIcBinaryRule?3?3getPhrase?$CJ?3?5@ 0043ab20     StaticRule.obj
 0003:00000b5c       ??_C@_0DJ@HNMA@?6ERROR?$CIcBinaryRule?3?3getPhrase?$CJ?3?5@ 0043ab5c     StaticRule.obj
 0003:00000b98       ??_C@_01HAF@?8?$AA@        0043ab98     StaticRule.obj
 0003:00000b9c       ??_C@_02KCKG@SW?$AA@       0043ab9c     StaticRule.obj
 0003:00000ba0       ??_C@_01KDJI@h?$AA@        0043aba0     StaticRule.obj
 0003:00000ba4       ??_C@_02KIL@SH?$AA@        0043aba4     StaticRule.obj
 0003:00000ba8       ??_C@_01JME@l?$AA@         0043aba8     StaticRule.obj
 0003:00000bac       ??_C@_02KANH@SL?$AA@       0043abac     StaticRule.obj
 0003:00000bb0       ??_C@_01FMOK@n?$AA@        0043abb0     StaticRule.obj
 0003:00000bb4       ??_C@_02PFPJ@SN?$AA@       0043abb4     StaticRule.obj
 0003:00000bb8       ??_C@_02IEE@?$CL?1?$AA@    0043abb8     StaticRule.obj
 0003:00000bbc       ??_C@_03JLEC@?1SP?$AA@     0043abbc     StaticRule.obj
 0003:00000bc0       ??_C@_02PHED@SP?$AA@       0043abc0     StaticRule.obj
 0003:00000bc4       ??_C@_02OPPL@VX?$AA@       0043abc4     StaticRule.obj
 0003:00000bc8       ??_C@_02LIKE@VA?$AA@       0043abc8     StaticRule.obj
 0003:00000bcc       ??_C@_02EEDB@VV?$AA@       0043abcc     StaticRule.obj
 0003:00000bd0       ??_C@_03IEAL@VPP?$AA@      0043abd0     StaticRule.obj
 0003:00000bd4       ??_C@_02ONIK@VC?$AA@       0043abd4     StaticRule.obj
 0003:00000bd8       ??_C@_02IGFB@XS?$AA@       0043abd8     StaticRule.obj
 0003:00000bdc       ??_C@_01FJJO@R?$AA@        0043abdc     StaticRule.obj
 0003:00000be0       ??_C@_03BHAK@MAJ?$AA@      0043abe0     StaticRule.obj
 0003:00000be4       ??_C@_02KBEB@SF?$AA@       0043abe4     StaticRule.obj
 0003:00000be8       ??_C@_02FPGO@SO?$AA@       0043abe8     StaticRule.obj
 0003:00000bec       ??_C@_02FOPI@SE?$AA@       0043abec     StaticRule.obj
 0003:00000bf0       ??_C@_02GKKM@JX?$AA@       0043abf0     StaticRule.obj
 0003:00000bf4       ??_C@_02JJJH@?6?6?$AA@     0043abf4     WriteTree.obj
 0003:00000bf8       ??_C@_03HKGO@?5?$CFs?$AA@  0043abf8     WriteTree.obj
 0003:00000bfc       ??_C@_01FAJB@?$DL?$AA@     0043abfc     WriteTree.obj
 0003:00000c00       ??_C@_01PDAJ@S?$AA@        0043ac00     WriteTree.obj
 0003:00000c04       ??_C@_08CLFO@?$CI?$CFs?$CF?95s?5?$AA@ 0043ac04     WriteTree.obj
 0003:00000c10       ??_C@_08HJEI@?$CI?$CFs?$CF?94s?5?$AA@ 0043ac10     WriteTree.obj
 0003:00000c1c       ??_C@_06NNNH@?$CI?$CFs?$CFs?5?$AA@ 0043ac1c     WriteTree.obj
 0003:00000c24       ??_C@_09EBOI@?5?5?5?5?5?5?5?5?5?$AA@ 0043ac24     WriteTree.obj
 0003:00000c30       ??_C@_0DB@MNNL@?$LB?h?G?$PN?$LM?$LB?$MA?L?5?$LB?X?$LK?q?$LI?$KO?$LP?$KB?5?$LA?a?H?$KF?G?Q?5?$LL?g?$LN?G?$MA?L?5@ 0043ac30     KupTest.obj
 0003:00000c64       ??_C@_06ONBK@?4?1data?$AA@ 0043ac64     KupTest.obj
 0003:00000c6c       ?__max@?$_STLP_mutex_spin@$0A@@_STL@@2IA 0043ac6c     stlport_vc6_static:string_w.obj
 0003:00000c70       ??_R0?AVlogic_error@_STL@@@8 0043ac70     stlport_vc6_static:dll_main.obj
 0003:00000c90       ??_R0?AVout_of_range@_STL@@@8 0043ac90     stlport_vc6_static:dll_main.obj
 0003:00000cb0       ??_R0?AVlength_error@_STL@@@8 0043acb0     stlport_vc6_static:dll_main.obj
 0003:00000d70       ?_S_max@id@locale@_STL@@2IA 0043ad70     stlport_vc6_static:locale_impl.obj
 0003:00000d74       ?id@?$collate@D@_STL@@2V0locale@2@A 0043ad74     stlport_vc6_static:locale_impl.obj
 0003:00000d78       ?id@?$ctype@D@_STL@@2V0locale@2@A 0043ad78     stlport_vc6_static:locale_impl.obj
 0003:00000d7c       ?id@?$codecvt@DDH@_STL@@2V0locale@2@A 0043ad7c     stlport_vc6_static:locale_impl.obj
 0003:00000d80       ?id@?$codecvt@GDH@_STL@@2V0locale@2@A 0043ad80     stlport_vc6_static:locale_impl.obj
 0003:00000d84       ?id@?$moneypunct@D$00@_STL@@2V0locale@2@A 0043ad84     stlport_vc6_static:locale_impl.obj
 0003:00000d88       ?id@?$moneypunct@D$0A@@_STL@@2V0locale@2@A 0043ad88     stlport_vc6_static:locale_impl.obj
 0003:00000d8c       ?id@?$numpunct@D@_STL@@2V0locale@2@A 0043ad8c     stlport_vc6_static:locale_impl.obj
 0003:00000d90       ?id@?$messages@D@_STL@@2V0locale@2@A 0043ad90     stlport_vc6_static:locale_impl.obj
 0003:00000d94       ?id@?$collate@G@_STL@@2V0locale@2@A 0043ad94     stlport_vc6_static:locale_impl.obj
 0003:00000d98       ?id@?$ctype@G@_STL@@2V0locale@2@A 0043ad98     stlport_vc6_static:locale_impl.obj
 0003:00000d9c       ?id@?$moneypunct@G$00@_STL@@2V0locale@2@A 0043ad9c     stlport_vc6_static:locale_impl.obj
 0003:00000da0       ?id@?$moneypunct@G$0A@@_STL@@2V0locale@2@A 0043ada0     stlport_vc6_static:locale_impl.obj
 0003:00000da4       ?id@?$numpunct@G@_STL@@2V0locale@2@A 0043ada4     stlport_vc6_static:locale_impl.obj
 0003:00000da8       ?id@?$messages@G@_STL@@2V0locale@2@A 0043ada8     stlport_vc6_static:locale_impl.obj
 0003:00000db0       ??_R0?AV_Locale_impl@_STL@@@8 0043adb0     stlport_vc6_static:locale_impl.obj
 0003:00000dd0       ??_R0?AVbad_cast@@@8       0043add0     stlport_vc6_static:locale_impl.obj
 0003:00000de8       ??_R0?AV?$num_get@GV?$istreambuf_iterator@GV?$char_traits@G@_STL@@@_STL@@@_STL@@@8 0043ade8     stlport_vc6_static:locale_impl.obj
 0003:00000e40       ??_R0?AV?$collate@G@_STL@@@8 0043ae40     stlport_vc6_static:locale_impl.obj
 0003:00000e60       ??_R0?AVctype_base@_STL@@@8 0043ae60     stlport_vc6_static:locale_impl.obj
 0003:00000e80       ??_R0?AV?$ctype@G@_STL@@@8 0043ae80     stlport_vc6_static:locale_impl.obj
 0003:00000ea0       ??_R0?AV?$collate@D@_STL@@@8 0043aea0     stlport_vc6_static:locale_impl.obj
 0003:00000ec0       ??_R0?AV?$money_put@DV?$ostreambuf_iterator@DV?$char_traits@D@_STL@@@_STL@@@_STL@@@8 0043aec0     stlport_vc6_static:locale_impl.obj
 0003:00000f18       ??_R0?AV?$time_put@DV?$ostreambuf_iterator@DV?$char_traits@D@_STL@@@_STL@@@_STL@@@8 0043af18     stlport_vc6_static:locale_impl.obj
 0003:00000f70       ??_R0?AV?$money_get@GV?$istreambuf_iterator@GV?$char_traits@G@_STL@@@_STL@@@_STL@@@8 0043af70     stlport_vc6_static:locale_impl.obj
 0003:00000fc8       ??_R0?AV?$numpunct@D@_STL@@@8 0043afc8     stlport_vc6_static:locale_impl.obj
 0003:00000fe8       ??_R0?AV?$num_put@DV?$ostreambuf_iterator@DV?$char_traits@D@_STL@@@_STL@@@_STL@@@8 0043afe8     stlport_vc6_static:locale_impl.obj
 0003:00001040       ??_R0?AV?$codecvt@GDH@_STL@@@8 0043b040     stlport_vc6_static:locale_impl.obj
 0003:00001068       ??_R0?AV?$money_get@DV?$istreambuf_iterator@DV?$char_traits@D@_STL@@@_STL@@@_STL@@@8 0043b068     stlport_vc6_static:locale_impl.obj
 0003:000010c0       ??_R0?AV?$time_get@GV?$istreambuf_iterator@GV?$char_traits@G@_STL@@@_STL@@@_STL@@@8 0043b0c0     stlport_vc6_static:locale_impl.obj
 0003:00001118       ??_R0?AV?$numpunct@G@_STL@@@8 0043b118     stlport_vc6_static:locale_impl.obj
 0003:00001138       ??_R0?AV?$time_get@DV?$istreambuf_iterator@DV?$char_traits@D@_STL@@@_STL@@@_STL@@@8 0043b138     stlport_vc6_static:locale_impl.obj
 0003:00001190       ??_R0?AVcodecvt_base@_STL@@@8 0043b190     stlport_vc6_static:locale_impl.obj
 0003:000011b0       ??_R0?AV?$codecvt@DDH@_STL@@@8 0043b1b0     stlport_vc6_static:locale_impl.obj
 0003:000011d8       ??_R0?AV?$num_put@GV?$ostreambuf_iterator@GV?$char_traits@G@_STL@@@_STL@@@_STL@@@8 0043b1d8     stlport_vc6_static:locale_impl.obj
 0003:00001230       ??_R0?AV?$num_get@DV?$istreambuf_iterator@DV?$char_traits@D@_STL@@@_STL@@@_STL@@@8 0043b230     stlport_vc6_static:locale_impl.obj
 0003:00001288       ??_R0?AV?$money_put@GV?$ostreambuf_iterator@GV?$char_traits@G@_STL@@@_STL@@@_STL@@@8 0043b288     stlport_vc6_static:locale_impl.obj
 0003:000012e0       ??_R0?AVtime_base@_STL@@@8 0043b2e0     stlport_vc6_static:locale_impl.obj
 0003:00001300       ??_R0?AU_Refcount_Base@_STL@@@8 0043b300     stlport_vc6_static:locale_impl.obj
 0003:00001328       ??_R0?AVfacet@locale@_STL@@@8 0043b328     stlport_vc6_static:locale_impl.obj
 0003:00001348       ??_R0?AV?$time_put@GV?$ostreambuf_iterator@GV?$char_traits@G@_STL@@@_STL@@@_STL@@@8 0043b348     stlport_vc6_static:locale_impl.obj
 0003:000013a0       ??_C@_01FKHJ@C?$AA@        0043b3a0     stlport_vc6_static:locale_impl.obj
 0003:000013a4       ??_C@_01FDHG@?$CK?$AA@     0043b3a4     stlport_vc6_static:locale_impl.obj
 0003:000013a8       ?_S_was_synced@ios_base@_STL@@1_NA 0043b3a8     stlport_vc6_static:iostream.obj
 0003:000013b0       ??_R0?AV?$basic_ostream@DV?$char_traits@D@_STL@@@_STL@@@8 0043b3b0     stlport_vc6_static:iostream.obj
 0003:000013f0       ??_R0?AV?$basic_ios@GV?$char_traits@G@_STL@@@_STL@@@8 0043b3f0     stlport_vc6_static:iostream.obj
 0003:00001428       ??_R0?AV?$basic_istream@GV?$char_traits@G@_STL@@@_STL@@@8 0043b428     stlport_vc6_static:iostream.obj
 0003:00001468       ??_R0?AV?$basic_ostream@GV?$char_traits@G@_STL@@@_STL@@@8 0043b468     stlport_vc6_static:iostream.obj
 0003:000014a8       ??_R0?AV?$basic_filebuf@GV?$char_traits@G@_STL@@@_STL@@@8 0043b4a8     stlport_vc6_static:iostream.obj
 0003:000014e8       ??_R0?AV?$basic_streambuf@GV?$char_traits@G@_STL@@@_STL@@@8 0043b4e8     stlport_vc6_static:iostream.obj
 0003:00001528       ??_R0?AVstdio_ostreambuf@_SgI@@@8 0043b528     stlport_vc6_static:iostream.obj
 0003:00001550       ??_R0?AVstdio_streambuf_base@_SgI@@@8 0043b550     stlport_vc6_static:iostream.obj
 0003:00001578       ??_R0?AVstdio_istreambuf@_SgI@@@8 0043b578     stlport_vc6_static:iostream.obj
 0003:000015a0       ??_R0?AVfailure@ios_base@_STL@@@8 0043b5a0     stlport_vc6_static:ios.obj
 0003:000015c4       ??_C@_0M@COKC@ios?5failure?$AA@ 0043b5c4     stlport_vc6_static:ios.obj
 0003:000015d0       ?_M_page_size@_Filebuf_base@_STL@@1IA 0043b5d0     stlport_vc6_static:fstream.obj
 0003:000015d8       ??_R0?AV?$ctype@D@_STL@@@8 0043b5d8     stlport_vc6_static:ctype.obj
 0003:000015f8       ??_R0?AVmessages_base@_STL@@@8 0043b5f8     stlport_vc6_static:messages.obj
 0003:00001620       ??_R0?AV?$messages@D@_STL@@@8 0043b620     stlport_vc6_static:messages.obj
 0003:00001640       ??_R0?AV_Messages@_STL@@@8 0043b640     stlport_vc6_static:messages.obj
 0003:00001660       ??_R0?AV?$messages@G@_STL@@@8 0043b660     stlport_vc6_static:messages.obj
 0003:00001680       ??_C@_04NCCD@true?$AA@     0043b680     stlport_vc6_static:numpunct.obj
 0003:00001688       ??_C@_05NAGO@false?$AA@    0043b688     stlport_vc6_static:numpunct.obj
 0003:00001690       ??_C@_19MHCJ@?$AAt?$AAr?$AAu?$AAe?$AA?$AA@ 0043b690     stlport_vc6_static:numpunct.obj
 0003:0000169c       ??_C@_1M@BPLO@?$AAf?$AAa?$AAl?$AAs?$AAe?$AA?$AA@ 0043b69c     stlport_vc6_static:numpunct.obj
 0003:000016a8       ??_R0?AVmoney_base@_STL@@@8 0043b6a8     stlport_vc6_static:monetary.obj
 0003:000016c8       ??_R0?AV?$moneypunct@D$00@_STL@@@8 0043b6c8     stlport_vc6_static:monetary.obj
 0003:000016f0       ??_R0?AV?$moneypunct@D$0A@@_STL@@@8 0043b6f0     stlport_vc6_static:monetary.obj
 0003:00001718       ??_R0?AV?$moneypunct@G$00@_STL@@@8 0043b718     stlport_vc6_static:monetary.obj
 0003:00001740       ??_R0?AV?$moneypunct@G$0A@@_STL@@@8 0043b740     stlport_vc6_static:monetary.obj
 0003:00001768       ??_C@_0BF@HIMH@?$CFa?5?$CFb?5?$CFe?5?$CFH?3?$CFM?3?$CFS?5?$CFY?$AA@ 0043b768     stlport_vc6_static:time_facets.obj
 0003:00001780       ??_C@_08BBCI@?$CFm?1?$CFd?1?$CFy?$AA@ 0043b780     stlport_vc6_static:time_facets.obj
 0003:0000178c       ??_C@_08DKN@?$CFH?3?$CFM?3?$CFS?$AA@ 0043b78c     stlport_vc6_static:time_facets.obj
 0003:00001798       ??_C@_02DBLP@PM?$AA@       0043b798     stlport_vc6_static:time_facets.obj
 0003:0000179c       ??_C@_02ENLM@AM?$AA@       0043b79c     stlport_vc6_static:time_facets.obj
 0003:000017a0       ??_C@_04BALP@?$CF2ld?$AA@  0043b7a0     stlport_vc6_static:time_facets.obj
 0003:000017a8       ??_C@_03JFOM@?$CFld?$AA@   0043b7a8     stlport_vc6_static:time_facets.obj
 0003:000017ac       ??_C@_05HBMD@?$CF?42ld?$AA@ 0043b7ac     stlport_vc6_static:time_facets.obj
 0003:000017d0       ??_C@_0L@JIBM@0123456789?$AA@ 0043b7d0     stlport_vc6_static:num_get_float.obj
 0003:000017ec       ??_C@_03JODP@NaN?$AA@      0043b7ec     stlport_vc6_static:num_put_float.obj
 0003:000017f0       ??_C@_03IOAK@nan?$AA@      0043b7f0     stlport_vc6_static:num_put_float.obj
 0003:000017f4       ??_C@_03PCAH@Inf?$AA@      0043b7f4     stlport_vc6_static:num_put_float.obj
 0003:000017f8       ??_C@_03LANC@inf?$AA@      0043b7f8     stlport_vc6_static:num_put_float.obj
 0003:00001ae0       ??_C@_07PCLE@LC_TIME?$AA@  0043bae0     stlport_vc6_static:c_locale.obj
 0003:00001ae8       ??_C@_0L@NKG@LC_NUMERIC?$AA@ 0043bae8     stlport_vc6_static:c_locale.obj
 0003:00001af4       ??_C@_0M@CBIH@LC_MONETARY?$AA@ 0043baf4     stlport_vc6_static:c_locale.obj
 0003:00001b00       ??_C@_08LFGE@LC_CTYPE?$AA@ 0043bb00     stlport_vc6_static:c_locale.obj
 0003:00001b0c       ??_C@_0L@CFLC@LC_COLLATE?$AA@ 0043bb0c     stlport_vc6_static:c_locale.obj
 0003:00001b18       ??_C@_06GCPK@LC_ALL?$AA@   0043bb18     stlport_vc6_static:c_locale.obj
 0003:00001b20       ??_C@_0O@GLHB@united?9states?$AA@ 0043bb20     stlport_vc6_static:c_locale.obj
 0003:00001b30       ??_C@_0P@IIKK@united?9kingdom?$AA@ 0043bb30     stlport_vc6_static:c_locale.obj
 0003:00001b40       ??_C@_03NCKB@TTO?$AA@      0043bb40     stlport_vc6_static:c_locale.obj
 0003:00001b44       ??_C@_0BC@FHBO@trinidad?5?$CG?5tobago?$AA@ 0043bb44     stlport_vc6_static:c_locale.obj
 0003:00001b58       ??_C@_0M@BDFM@south?9korea?$AA@ 0043bb58     stlport_vc6_static:c_locale.obj
 0003:00001b64       ??_C@_0N@CKFA@south?9africa?$AA@ 0043bb64     stlport_vc6_static:c_locale.obj
 0003:00001b74       ??_C@_03MEBO@KOR?$AA@      0043bb74     stlport_vc6_static:c_locale.obj
 0003:00001b78       ??_C@_0M@HNHN@south?5korea?$AA@ 0043bb78     stlport_vc6_static:c_locale.obj
 0003:00001b84       ??_C@_03HGOF@ZAF?$AA@      0043bb84     stlport_vc6_static:c_locale.obj
 0003:00001b88       ??_C@_0N@MKDO@south?5africa?$AA@ 0043bb88     stlport_vc6_static:c_locale.obj
 0003:00001b98       ??_C@_03OLMJ@SVK?$AA@      0043bb98     stlport_vc6_static:c_locale.obj
 0003:00001b9c       ??_C@_06KFFJ@slovak?$AA@   0043bb9c     stlport_vc6_static:c_locale.obj
 0003:00001ba4       ??_C@_03BCHG@PRI?$AA@      0043bba4     stlport_vc6_static:c_locale.obj
 0003:00001ba8       ??_C@_0M@NMAC@puerto?9rico?$AA@ 0043bba8     stlport_vc6_static:c_locale.obj
 0003:00001bb4       ??_C@_08EJOH@pr?9china?$AA@ 0043bbb4     stlport_vc6_static:c_locale.obj
 0003:00001bc0       ??_C@_08CHMG@pr?5china?$AA@ 0043bbc0     stlport_vc6_static:c_locale.obj
 0003:00001bcc       ??_C@_02OCJK@nz?$AA@       0043bbcc     stlport_vc6_static:c_locale.obj
 0003:00001bd0       ??_C@_03PKEB@NZL?$AA@      0043bbd0     stlport_vc6_static:c_locale.obj
 0003:00001bd4       ??_C@_0M@MMKA@new?9zealand?$AA@ 0043bbd4     stlport_vc6_static:c_locale.obj
 0003:00001be0       ??_C@_03MBDE@HKG?$AA@      0043bbe0     stlport_vc6_static:c_locale.obj
 0003:00001be4       ??_C@_09MGEH@hong?9kong?$AA@ 0043bbe4     stlport_vc6_static:c_locale.obj
 0003:00001bf0       ??_C@_03LDKP@NLD?$AA@      0043bbf0     stlport_vc6_static:c_locale.obj
 0003:00001bf4       ??_C@_07CCAK@holland?$AA@  0043bbf4     stlport_vc6_static:c_locale.obj
 0003:00001bfc       ??_C@_0O@MEPL@great?5britain?$AA@ 0043bbfc     stlport_vc6_static:c_locale.obj
 0003:00001c0c       ??_C@_07LGIB@england?$AA@  0043bc0c     stlport_vc6_static:c_locale.obj
 0003:00001c14       ??_C@_03IOJH@CZE?$AA@      0043bc14     stlport_vc6_static:c_locale.obj
 0003:00001c18       ??_C@_05BMOA@czech?$AA@    0043bc18     stlport_vc6_static:c_locale.obj
 0003:00001c20       ??_C@_03GCGK@CHN?$AA@      0043bc20     stlport_vc6_static:c_locale.obj
 0003:00001c24       ??_C@_05NMPB@china?$AA@    0043bc24     stlport_vc6_static:c_locale.obj
 0003:00001c2c       ??_C@_03OFKF@GBR?$AA@      0043bc2c     stlport_vc6_static:c_locale.obj
 0003:00001c30       ??_C@_07GN@britain?$AA@    0043bc30     stlport_vc6_static:c_locale.obj
 0003:00001c38       ??_C@_03EKCI@USA?$AA@      0043bc38     stlport_vc6_static:c_locale.obj
 0003:00001c3c       ??_C@_07DLAK@america?$AA@  0043bc3c     stlport_vc6_static:c_locale.obj
 0003:00001c44       ??_C@_03IPEP@usa?$AA@      0043bc44     stlport_vc6_static:c_locale.obj
 0003:00001c48       ??_C@_02PILH@us?$AA@       0043bc48     stlport_vc6_static:c_locale.obj
 0003:00001c4c       ??_C@_02FHP@uk?$AA@        0043bc4c     stlport_vc6_static:c_locale.obj
 0003:00001c50       ??_C@_05DEAI@swiss?$AA@    0043bc50     stlport_vc6_static:c_locale.obj
 0003:00001c58       ??_C@_03LPLK@SVF?$AA@      0043bc58     stlport_vc6_static:c_locale.obj
 0003:00001c5c       ??_C@_0BA@LIAF@swedish?9finland?$AA@ 0043bc5c     stlport_vc6_static:c_locale.obj
 0003:00001c6c       ??_C@_03JHNH@ESV?$AA@      0043bc6c     stlport_vc6_static:c_locale.obj
 0003:00001c70       ??_C@_0BC@FMEG@spanish?9venezuela?$AA@ 0043bc70     stlport_vc6_static:c_locale.obj
 0003:00001c84       ??_C@_03JGIK@ESY?$AA@      0043bc84     stlport_vc6_static:c_locale.obj
 0003:00001c88       ??_C@_0BA@BNMG@spanish?9uruguay?$AA@ 0043bc88     stlport_vc6_static:c_locale.obj
 0003:00001c98       ??_C@_03GIGO@ESU?$AA@      0043bc98     stlport_vc6_static:c_locale.obj
 0003:00001c9c       ??_C@_0BE@BKDJ@spanish?9puerto?5rico?$AA@ 0043bc9c     stlport_vc6_static:c_locale.obj
 0003:00001cb0       ??_C@_03DNIL@ESR?$AA@      0043bcb0     stlport_vc6_static:c_locale.obj
 0003:00001cb4       ??_C@_0N@JIBL@spanish?9peru?$AA@ 0043bcb4     stlport_vc6_static:c_locale.obj
 0003:00001cc4       ??_C@_03GJDD@ESZ?$AA@      0043bcc4     stlport_vc6_static:c_locale.obj
 0003:00001cc8       ??_C@_0BB@OGOF@spanish?9paraguay?$AA@ 0043bcc8     stlport_vc6_static:c_locale.obj
 0003:00001cdc       ??_C@_03GLEC@ESA?$AA@      0043bcdc     stlport_vc6_static:c_locale.obj
 0003:00001ce0       ??_C@_0P@LLFA@spanish?9panama?$AA@ 0043bce0     stlport_vc6_static:c_locale.obj
 0003:00001cf0       ??_C@_03DPPK@ESI?$AA@      0043bcf0     stlport_vc6_static:c_locale.obj
 0003:00001cf4       ??_C@_0BC@BBJM@spanish?9nicaragua?$AA@ 0043bcf4     stlport_vc6_static:c_locale.obj
 0003:00001d08       ??_C@_03GKBP@ESN?$AA@      0043bd08     stlport_vc6_static:c_locale.obj
 0003:00001d0c       ??_C@_0P@NJBN@spanish?9modern?$AA@ 0043bd0c     stlport_vc6_static:c_locale.obj
 0003:00001d1c       ??_C@_03JFKG@ESM?$AA@      0043bd1c     stlport_vc6_static:c_locale.obj
 0003:00001d20       ??_C@_0BA@NHDN@spanish?9mexican?$AA@ 0043bd20     stlport_vc6_static:c_locale.obj
 0003:00001d30       ??_C@_03JFGN@ESH?$AA@      0043bd30     stlport_vc6_static:c_locale.obj
 0003:00001d34       ??_C@_0BB@JHOJ@spanish?9honduras?$AA@ 0043bd34     stlport_vc6_static:c_locale.obj
 0003:00001d48       ??_C@_03JEDA@ESG?$AA@      0043bd48     stlport_vc6_static:c_locale.obj
 0003:00001d4c       ??_C@_0BC@BOOM@spanish?9guatemala?$AA@ 0043bd4c     stlport_vc6_static:c_locale.obj
 0003:00001d60       ??_C@_03MBBO@ESE?$AA@      0043bd60     stlport_vc6_static:c_locale.obj
 0003:00001d64       ??_C@_0BE@EELI@spanish?9el?5salvador?$AA@ 0043bd64     stlport_vc6_static:c_locale.obj
 0003:00001d78       ??_C@_03DOKH@ESF?$AA@      0043bd78     stlport_vc6_static:c_locale.obj
 0003:00001d7c       ??_C@_0BA@POAE@spanish?9ecuador?$AA@ 0043bd7c     stlport_vc6_static:c_locale.obj
 0003:00001d8c       ??_C@_03GLIJ@ESD?$AA@      0043bd8c     stlport_vc6_static:c_locale.obj
 0003:00001d90       ??_C@_0BL@LDKN@spanish?9dominican?5republic?$AA@ 0043bd90     stlport_vc6_static:c_locale.obj
 0003:00001dac       ??_C@_03DOGM@ESC?$AA@      0043bdac     stlport_vc6_static:c_locale.obj
 0003:00001db0       ??_C@_0BD@HPMH@spanish?9costa?5rica?$AA@ 0043bdb0     stlport_vc6_static:c_locale.obj
 0003:00001dc4       ??_C@_03MAII@ESO?$AA@      0043bdc4     stlport_vc6_static:c_locale.obj
 0003:00001dc8       ??_C@_0BB@NDDK@spanish?9colombia?$AA@ 0043bdc8     stlport_vc6_static:c_locale.obj
 0003:00001ddc       ??_C@_03DPDB@ESL?$AA@      0043bddc     stlport_vc6_static:c_locale.obj
 0003:00001de0       ??_C@_0O@BJHA@spanish?9chile?$AA@ 0043bde0     stlport_vc6_static:c_locale.obj
 0003:00001df0       ??_C@_03JEPL@ESB?$AA@      0043bdf0     stlport_vc6_static:c_locale.obj
 0003:00001df4       ??_C@_0BA@OBNG@spanish?9bolivia?$AA@ 0043bdf4     stlport_vc6_static:c_locale.obj
 0003:00001e04       ??_C@_03JHBM@ESS?$AA@      0043be04     stlport_vc6_static:c_locale.obj
 0003:00001e08       ??_C@_0BC@EFAM@spanish?9argentina?$AA@ 0043be08     stlport_vc6_static:c_locale.obj
 0003:00001e1c       ??_C@_03MOII@PTB?$AA@      0043be1c     stlport_vc6_static:c_locale.obj
 0003:00001e20       ??_C@_0BF@KMMM@portuguese?9brazilian?$AA@ 0043be20     stlport_vc6_static:c_locale.obj
 0003:00001e38       ??_C@_03IJMG@NON?$AA@      0043be38     stlport_vc6_static:c_locale.obj
 0003:00001e3c       ??_C@_0BC@BAAE@norwegian?9nynorsk?$AA@ 0043be3c     stlport_vc6_static:c_locale.obj
 0003:00001e50       ??_C@_0BB@PBHK@norwegian?9bokmal?$AA@ 0043be50     stlport_vc6_static:c_locale.obj
 0003:00001e64       ??_C@_03NOFC@NOR?$AA@      0043be64     stlport_vc6_static:c_locale.obj
 0003:00001e68       ??_C@_09EHKL@norwegian?$AA@ 0043be68     stlport_vc6_static:c_locale.obj
 0003:00001e74       ??_C@_03COKG@ITS?$AA@      0043be74     stlport_vc6_static:c_locale.obj
 0003:00001e78       ??_C@_0O@BEAN@italian?9swiss?$AA@ 0043be78     stlport_vc6_static:c_locale.obj
 0003:00001e88       ??_C@_0O@OIFK@irish?9english?$AA@ 0043be88     stlport_vc6_static:c_locale.obj
 0003:00001e98       ??_C@_03NIFM@DES?$AA@      0043be98     stlport_vc6_static:c_locale.obj
 0003:00001e9c       ??_C@_0N@NBPL@german?9swiss?$AA@ 0043be9c     stlport_vc6_static:c_locale.obj
 0003:00001eac       ??_C@_03HAHB@DEL?$AA@      0043beac     stlport_vc6_static:c_locale.obj
 0003:00001eb0       ??_C@_0BC@ICFJ@german?9luxembourg?$AA@ 0043beb0     stlport_vc6_static:c_locale.obj
 0003:00001ec4       ??_C@_03HBCM@DEC?$AA@      0043bec4     stlport_vc6_static:c_locale.obj
 0003:00001ec8       ??_C@_0BE@GGPC@german?9lichtenstein?$AA@ 0043bec8     stlport_vc6_static:c_locale.obj
 0003:00001edc       ??_C@_03CEAC@DEA?$AA@      0043bedc     stlport_vc6_static:c_locale.obj
 0003:00001ee0       ??_C@_0BA@MKDC@german?9austrian?$AA@ 0043bee0     stlport_vc6_static:c_locale.obj
 0003:00001ef0       ??_C@_03HHIN@FRS?$AA@      0043bef0     stlport_vc6_static:c_locale.obj
 0003:00001ef4       ??_C@_0N@ODNB@french?9swiss?$AA@ 0043bef4     stlport_vc6_static:c_locale.obj
 0003:00001f04       ??_C@_03NPKA@FRL?$AA@      0043bf04     stlport_vc6_static:c_locale.obj
 0003:00001f08       ??_C@_0BC@MGCM@french?9luxembourg?$AA@ 0043bf08     stlport_vc6_static:c_locale.obj
 0003:00001f1c       ??_C@_03NOPN@FRC?$AA@      0043bf1c     stlport_vc6_static:c_locale.obj
 0003:00001f20       ??_C@_0BA@NABK@french?9canadian?$AA@ 0043bf20     stlport_vc6_static:c_locale.obj
 0003:00001f30       ??_C@_03HEGK@FRB?$AA@      0043bf30     stlport_vc6_static:c_locale.obj
 0003:00001f34       ??_C@_0P@CJNO@french?9belgian?$AA@ 0043bf34     stlport_vc6_static:c_locale.obj
 0003:00001f44       ??_C@_0M@LJOL@english?9usa?$AA@ 0043bf44     stlport_vc6_static:c_locale.obj
 0003:00001f50       ??_C@_0L@FMNC@english?9us?$AA@ 0043bf50     stlport_vc6_static:c_locale.obj
 0003:00001f5c       ??_C@_03HMN@ENG?$AA@       0043bf5c     stlport_vc6_static:c_locale.obj
 0003:00001f60       ??_C@_0L@KBBK@english?9uk?$AA@ 0043bf60     stlport_vc6_static:c_locale.obj
 0003:00001f6c       ??_C@_03FBAE@ENT?$AA@      0043bf6c     stlport_vc6_static:c_locale.obj
 0003:00001f70       ??_C@_0BK@NDDE@english?9trinidad?5y?5tobago?$AA@ 0043bf70     stlport_vc6_static:c_locale.obj
 0003:00001f8c       ??_C@_03EOB@ENS?$AA@       0043bf8c     stlport_vc6_static:c_locale.obj
 0003:00001f90       ??_C@_0BF@LKML@english?9south?5africa?$AA@ 0043bf90     stlport_vc6_static:c_locale.obj
 0003:00001fa8       ??_C@_03PKMO@ENZ?$AA@      0043bfa8     stlport_vc6_static:c_locale.obj
 0003:00001fac       ??_C@_0L@EGPP@english?9nz?$AA@ 0043bfac     stlport_vc6_static:c_locale.obj
 0003:00001fb8       ??_C@_03FDLO@ENJ?$AA@      0043bfb8     stlport_vc6_static:c_locale.obj
 0003:00001fbc       ??_C@_0BA@HLH@english?9jamaica?$AA@ 0043bfbc     stlport_vc6_static:c_locale.obj
 0003:00001fcc       ??_C@_03KMAH@ENI?$AA@      0043bfcc     stlport_vc6_static:c_locale.obj
 0003:00001fd0       ??_C@_0M@PMJI@english?9ire?$AA@ 0043bfd0     stlport_vc6_static:c_locale.obj
 0003:00001fdc       ??_C@_03HAG@ENB?$AA@       0043bfdc     stlport_vc6_static:c_locale.obj
 0003:00001fe0       ??_C@_0BC@HINE@english?9caribbean?$AA@ 0043bfe0     stlport_vc6_static:c_locale.obj
 0003:00001ff4       ??_C@_0M@DCFH@english?9can?$AA@ 0043bff4     stlport_vc6_static:c_locale.obj
 0003:00002000       ??_C@_03KMMM@ENL?$AA@      0043c000     stlport_vc6_static:c_locale.obj
 0003:00002004       ??_C@_0P@DGHK@english?9belize?$AA@ 0043c004     stlport_vc6_static:c_locale.obj
 0003:00002014       ??_C@_0M@FLHK@english?9aus?$AA@ 0043c014     stlport_vc6_static:c_locale.obj
 0003:00002020       ??_C@_0BB@HNCK@english?9american?$AA@ 0043c020     stlport_vc6_static:c_locale.obj
 0003:00002034       ??_C@_0O@PAMI@dutch?9belgian?$AA@ 0043c034     stlport_vc6_static:c_locale.obj
 0003:00002044       ??_C@_03MKIM@CHT?$AA@      0043c044     stlport_vc6_static:c_locale.obj
 0003:00002048       ??_C@_0BE@FPEJ@chinese?9traditional?$AA@ 0043c048     stlport_vc6_static:c_locale.obj
 0003:0000205c       ??_C@_0BC@CHFL@chinese?9singapore?$AA@ 0043c05c     stlport_vc6_static:c_locale.obj
 0003:00002070       ??_C@_0BD@DCMH@chinese?9simplified?$AA@ 0043c070     stlport_vc6_static:c_locale.obj
 0003:00002084       ??_C@_0BB@JMOE@chinese?9hongkong?$AA@ 0043c084     stlport_vc6_static:c_locale.obj
 0003:00002098       ??_C@_03JPGJ@CHS?$AA@      0043c098     stlport_vc6_static:c_locale.obj
 0003:0000209c       ??_C@_07NGFN@chinese?$AA@  0043c09c     stlport_vc6_static:c_locale.obj
 0003:000020a4       ??_C@_03NEEG@ZHI?$AA@      0043c0a4     stlport_vc6_static:c_locale.obj
 0003:000020a8       ??_C@_03PCOI@chi?$AA@      0043c0a8     stlport_vc6_static:c_locale.obj
 0003:000020ac       ??_C@_03HONB@ZHH?$AA@      0043c0ac     stlport_vc6_static:c_locale.obj
 0003:000020b0       ??_C@_03FIHP@chh?$AA@      0043c0b0     stlport_vc6_static:c_locale.obj
 0003:000020b4       ??_C@_03KNJB@ENC?$AA@      0043c0b4     stlport_vc6_static:c_locale.obj
 0003:000020b8       ??_C@_08HFLO@canadian?$AA@ 0043c0b8     stlport_vc6_static:c_locale.obj
 0003:000020c4       ??_C@_03EMNN@NLB?$AA@      0043c0c4     stlport_vc6_static:c_locale.obj
 0003:000020c8       ??_C@_07INIJ@belgian?$AA@  0043c0c8     stlport_vc6_static:c_locale.obj
 0003:000020d0       ??_C@_03PILP@ENA?$AA@      0043c0d0     stlport_vc6_static:c_locale.obj
 0003:000020d4       ??_C@_0L@LCCA@australian?$AA@ 0043c0d4     stlport_vc6_static:c_locale.obj
 0003:000020e0       ??_C@_0BB@BJIO@american?9english?$AA@ 0043c0e0     stlport_vc6_static:c_locale.obj
 0003:000020f4       ??_C@_0BB@DAGO@american?5english?$AA@ 0043c0f4     stlport_vc6_static:c_locale.obj
 0003:00002108       ??_C@_03PLJD@ENU?$AA@      0043c108     stlport_vc6_static:c_locale.obj
 0003:0000210c       ??_C@_08HENB@american?$AA@ 0043c10c     stlport_vc6_static:c_locale.obj
 0003:00002120       __NLG_Destination          0043c120     LIBC:exsup.obj
 0003:00002130       ??_R0?AVtype_info@@@8      0043c130     LIBC:typinfo.obj
 0003:00002150       __fltused                  0043c150     LIBC:fpinit.obj
 0003:00002154       __ldused                   0043c154     LIBC:fpinit.obj
 0003:00002158       __FPinit                   0043c158     LIBC:fpinit.obj
 0003:0000215c       __FPmtinit                 0043c15c     LIBC:fpinit.obj
 0003:00002160       __FPmtterm                 0043c160     LIBC:fpinit.obj
 0003:00002164       ?__pMyUnhandledExceptionFilter@@3PAXA 0043c164     LIBC:throw.obj
 0003:00002170       __iob                      0043c170     LIBC:_file.obj
 0003:000023f0       ??_R0?AVbad_typeid@@@8     0043c3f0     LIBC:rtti.obj
 0003:00002410       ??_R0?AV__non_rtti_object@@@8 0043c410     LIBC:rtti.obj
 0003:00002430       __aexit_rtn                0043c430     LIBC:crt0.obj
 0003:00002434       ___app_type                0043c434     LIBC:crt0.obj
 0003:00002550       ___badioinfo               0043c550     LIBC:ioinit.obj
 0003:00002560       __amblksiz                 0043c560     LIBC:heapinit.obj
 0003:00002568       ___old_small_block_heap    0043c568     LIBC:sbheap.obj
 0003:0000458c       ___old_sbh_threshold       0043e58c     LIBC:sbheap.obj
 0003:000045a0       ?__pUnexpected@@3P6AXXZA   0043e5a0     LIBC:hooks.obj
 0003:000045a4       ?__pInconsistency@@3P6AXXZA 0043e5a4     LIBC:hooks.obj
 0003:000045a8       __pctype                   0043e5a8     LIBC:ctype.obj
 0003:000045ac       __pwctype                  0043e5ac     LIBC:ctype.obj
 0003:000045b0       __ctype                    0043e5b0     LIBC:ctype.obj
 0003:000047b4       ___mb_cur_max              0043e7b4     LIBC:nlsdata1.obj
 0003:000047b8       ___decimal_point           0043e7b8     LIBC:nlsdata1.obj
 0003:000047bc       ___decimal_point_length    0043e7bc     LIBC:nlsdata1.obj
 0003:000047c4       ___nullstring              0043e7c4     LIBC:output.obj
 0003:000047c8       ___wnullstring             0043e7c8     LIBC:output.obj
 0003:000047cc       __cfltcvt_tab              0043e7cc     LIBC:cmiscdat.obj
 0003:000047f8       __XcptActTab               0043e7f8     LIBC:winxfltr.obj
 0003:00004870       __First_FPE_Indx           0043e870     LIBC:winxfltr.obj
 0003:00004874       __Num_FPE                  0043e874     LIBC:winxfltr.obj
 0003:00004878       __XcptActTabCount          0043e878     LIBC:winxfltr.obj
 0003:0000487c       __fpecode                  0043e87c     LIBC:winxfltr.obj
 0003:00004a78       __d_inf                    0043ea78     LIBC:util.obj
 0003:00004a80       __d_ind                    0043ea80     LIBC:util.obj
 0003:00004a88       __d_max                    0043ea88     LIBC:util.obj
 0003:00004a90       __d_min                    0043ea90     LIBC:util.obj
 0003:00004a98       __d_mzero                  0043ea98     LIBC:util.obj
 0003:00004bc0       __p_overlay                0043ebc0     LIBC:dospawn.obj
 0003:00004cc0       ___lc_time_curr            0043ecc0     LIBC:strftime.obj
 0003:00004cc8       ___lc_time_c               0043ecc8     LIBC:strftime.obj
 0003:00004d78       ___lconv_static_decimal    0043ed78     LIBC:lconv.obj
 0003:00004d80       ___lconv_c                 0043ed80     LIBC:lconv.obj
 0003:00004db0       ___lconv                   0043edb0     LIBC:lconv.obj
 0003:00004dc0       __matherr_flag             0043edc0     LIBC:matherr.obj
 0003:00004dd0       __timezone                 0043edd0     LIBC:timeset.obj
 0003:00004dd4       __daylight                 0043edd4     LIBC:timeset.obj
 0003:00004dd8       __dstbias                  0043edd8     LIBC:timeset.obj
 0003:00004e5c       __tzname                   0043ee5c     LIBC:timeset.obj
 0003:00004e88       __pow10pos                 0043ee88     LIBC:constpow.obj
 0003:00004fe8       __pow10neg                 0043efe8     LIBC:constpow.obj
 0003:00005144       __lpdays                   0043f144     LIBC:days.obj
 0003:00005178       __days                     0043f178     LIBC:days.obj
 0003:000051b0       ??_C@_00A@?$AA@            0043f1b0     DynamicRule.obj
 0003:000052d0       ?_S_free_list@?$__node_alloc@$00$0A@@_STL@@0RCRAV_Node_alloc_obj@2@C 0043f2d0     stlport_vc6_static:string_w.obj
 0003:00005310       ?_S_lock@?$_Node_Alloc_Lock@$00$0A@@_STL@@2U_STLP_mutex_base@2@A 0043f310     stlport_vc6_static:string_w.obj
 0003:00005314       ?__last@?$_STLP_mutex_spin@$0A@@_STL@@2IA 0043f314     stlport_vc6_static:string_w.obj
 0003:00005318       ?_S_heap_size@?$__node_alloc@$00$0A@@_STL@@0IA 0043f318     stlport_vc6_static:string_w.obj
 0003:0000531c       ?_S_end_free@?$__node_alloc@$00$0A@@_STL@@0PADA 0043f31c     stlport_vc6_static:string_w.obj
 0003:00005320       ?_S_start_free@?$__node_alloc@$00$0A@@_STL@@0PADA 0043f320     stlport_vc6_static:string_w.obj
 0003:00005d98       ?_S_global_impl@_Locale_impl@_STL@@2PAV12@A 0043fd98     stlport_vc6_static:locale_impl.obj
 0003:00005d9c       ?_S_global_locale_lock@_Locale_impl@_STL@@2U_STLP_mutex_base@2@A 0043fd9c     stlport_vc6_static:locale_impl.obj
 0003:00005da0       ?_S_count@_Loc_init@ios_base@_STL@@0JA 0043fda0     stlport_vc6_static:locale_impl.obj
 0003:00005da8       ?clog@_STL@@3V?$basic_ostream@DV?$char_traits@D@_STL@@@1@A 0043fda8     stlport_vc6_static:iostream.obj
 0003:00005e10       ?wcerr@_STL@@3V?$basic_ostream@GV?$char_traits@G@_STL@@@1@A 0043fe10     stlport_vc6_static:iostream.obj
 0003:00005e78       ?cout@_STL@@3V?$basic_ostream@DV?$char_traits@D@_STL@@@1@A 0043fe78     stlport_vc6_static:iostream.obj
 0003:00005ee0       ?cin@_STL@@3V?$basic_istream@DV?$char_traits@D@_STL@@@1@A 0043fee0     stlport_vc6_static:iostream.obj
 0003:00005f48       ?wclog@_STL@@3V?$basic_ostream@GV?$char_traits@G@_STL@@@1@A 0043ff48     stlport_vc6_static:iostream.obj
 0003:00005fb0       ?wcin@_STL@@3V?$basic_istream@GV?$char_traits@G@_STL@@@1@A 0043ffb0     stlport_vc6_static:iostream.obj
 0003:00006018       ?cerr@_STL@@3V?$basic_ostream@DV?$char_traits@D@_STL@@@1@A 00440018     stlport_vc6_static:iostream.obj
 0003:00006080       ?wcout@_STL@@3V?$basic_ostream@GV?$char_traits@G@_STL@@@1@A 00440080     stlport_vc6_static:iostream.obj
 0003:000060e4       ?_S_count@Init@ios_base@_STL@@0JA 004400e4     stlport_vc6_static:iostream.obj
 0003:000060e8       ?_S_index@ios_base@_STL@@0HA 004400e8     stlport_vc6_static:ios.obj
 0003:00006100       ?_M_truename@?$numpunct@G@_STL@@1V?$basic_string@GV?$char_traits@G@_STL@@V?$allocator@G@2@@2@A 00440100     stlport_vc6_static:numpunct.obj
 0003:00006110       ?_M_grouping@?$numpunct@G@_STL@@1V?$basic_string@DV?$char_traits@D@_STL@@V?$allocator@D@2@@2@A 00440110     stlport_vc6_static:numpunct.obj
 0003:00006120       ?_M_truename@?$numpunct@D@_STL@@2V?$basic_string@DV?$char_traits@D@_STL@@V?$allocator@D@2@@2@A 00440120     stlport_vc6_static:numpunct.obj
 0003:00006130       ?_M_falsename@?$numpunct@D@_STL@@2V?$basic_string@DV?$char_traits@D@_STL@@V?$allocator@D@2@@2@A 00440130     stlport_vc6_static:numpunct.obj
 0003:00006140       ?_M_falsename@?$numpunct@G@_STL@@1V?$basic_string@GV?$char_traits@G@_STL@@V?$allocator@G@2@@2@A 00440140     stlport_vc6_static:numpunct.obj
 0003:00006150       ?_M_grouping@?$numpunct@D@_STL@@2V?$basic_string@DV?$char_traits@D@_STL@@V?$allocator@D@2@@2@A 00440150     stlport_vc6_static:numpunct.obj
 0003:00006160       ?_S_empty_string@_STL@@3V?$basic_string@DV?$char_traits@D@_STL@@V?$allocator@D@2@@1@A 00440160     stlport_vc6_static:monetary.obj
 0003:00006170       ?_S_empty_wstring@_STL@@3V?$basic_string@GV?$char_traits@G@_STL@@V?$allocator@G@2@@1@A 00440170     stlport_vc6_static:monetary.obj
 0003:0000617c       ??_C@_11A@?$AA?$AA@        0044017c     stlport_vc6_static:monetary.obj
 0003:000066f0       ___fastflag                004406f0     LIBC:fpinit.obj
 0003:000066f4       __adjust_fdiv              004406f4     LIBC:fpinit.obj
 0003:000066f8       __cflush                   004406f8     LIBC:_file.obj
 0003:000066fc       __aenvptr                  004406fc     LIBC:crt0.obj
 0003:00006700       __wenvptr                  00440700     LIBC:crt0.obj
 0003:00006704       ___error_mode              00440704     LIBC:crt0.obj
 0003:00006874       __newmode                  00440874     LIBC:_newmode.obj
 0003:00006878       ?_pnhHeap@@3P6AHI@ZA       00440878     LIBC:handler.obj
 0003:00006880       ?_pCurrentException@@3PAUEHExceptionRecord@@A 00440880     LIBC:frame.obj
 0003:00006884       ?_pCurrentExContext@@3PAU_CONTEXT@@A 00440884     LIBC:frame.obj
 0003:00006888       ?__pSETranslator@@3P6AXIPAU_EXCEPTION_POINTERS@@@ZA 00440888     LIBC:hooks.obj
 0003:0000688c       ?__pTerminate@@3P6AXXZA    0044088c     LIBC:hooks.obj
 0003:000068a8       __stdbuf                   004408a8     LIBC:_sftbuf.obj
 0003:000068c4       _errno                     004408c4     LIBC:crt0dat.obj
 0003:000068c8       __doserrno                 004408c8     LIBC:crt0dat.obj
 0003:000068cc       __umaskval                 004408cc     LIBC:crt0dat.obj
 0003:000068d0       __osver                    004408d0     LIBC:crt0dat.obj
 0003:000068d4       __winver                   004408d4     LIBC:crt0dat.obj
 0003:000068d8       __winmajor                 004408d8     LIBC:crt0dat.obj
 0003:000068dc       __winminor                 004408dc     LIBC:crt0dat.obj
 0003:000068e0       ___argc                    004408e0     LIBC:crt0dat.obj
 0003:000068e4       ___argv                    004408e4     LIBC:crt0dat.obj
 0003:000068e8       ___wargv                   004408e8     LIBC:crt0dat.obj
 0003:000068ec       __environ                  004408ec     LIBC:crt0dat.obj
 0003:000068f0       ___initenv                 004408f0     LIBC:crt0dat.obj
 0003:000068f4       __wenviron                 004408f4     LIBC:crt0dat.obj
 0003:000068f8       ___winitenv                004408f8     LIBC:crt0dat.obj
 0003:000068fc       __pgmptr                   004408fc     LIBC:crt0dat.obj
 0003:00006900       __wpgmptr                  00440900     LIBC:crt0dat.obj
 0003:00006904       __exitflag                 00440904     LIBC:crt0dat.obj
 0003:00006908       __C_Termination_Done       00440908     LIBC:crt0dat.obj
 0003:0000690c       __C_Exit_Done              0044090c     LIBC:crt0dat.obj
 0003:00006910       ?pArgList@UnDecorator@@0PAVReplicator@@A 00440910     LIBC:undname.obj
 0003:0000692c       ?pZNameList@UnDecorator@@0PAVReplicator@@A 0044092c     LIBC:undname.obj
 0003:00006930       ?pTemplateArgList@UnDecorator@@0PAVReplicator@@A 00440930     LIBC:undname.obj
 0003:00006934       ?gName@UnDecorator@@0PBDB  00440934     LIBC:undname.obj
 0003:00006938       ?name@UnDecorator@@0PBDB   00440938     LIBC:undname.obj
 0003:0000693c       ?outputString@UnDecorator@@0PADA 0044093c     LIBC:undname.obj
 0003:00006940       ?maxStringLength@UnDecorator@@0HA 00440940     LIBC:undname.obj
 0003:00006944       ?disableFlags@UnDecorator@@0KA 00440944     LIBC:undname.obj
 0003:00006948       ?m_pGetParameter@UnDecorator@@0P6APADJ@ZA 00440948     LIBC:undname.obj
 0003:0000694c       __pxcptinfoptrs            0044094c     LIBC:winxfltr.obj
 0003:00006a58       __adbgmsg                  00440a58     LIBC:crt0msg.obj
 0003:00006a70       ___lc_time_intl            00440a70     LIBC:inittime.obj
 0003:00006a8c       ___lc_handle               00440a8c     LIBC:nlsdata2.obj
 0003:00006aa4       ___lc_codepage             00440aa4     LIBC:nlsdata2.obj
 0003:00006aa8       ___lc_collate_cp           00440aa8     LIBC:nlsdata2.obj
 0003:00006aac       ___lc_id                   00440aac     LIBC:nlsdata3.obj
 0003:00006b2c       __commode                  00440b2c     LIBC:ncommode.obj
 0003:00006b48       ___lconv_static_null       00440b48     LIBC:lconv.obj
 0003:00006b50       __fmode                    00440b50     LIBC:txtmode.obj
 0003:00006c24       ?id@?$money_get@DV?$istreambuf_iterator@DV?$char_traits@D@_STL@@@_STL@@@_STL@@2V0locale@2@A 00440c24     <common>
 0003:00006c28       ?id@?$money_get@DPBD@_STL@@2V0locale@2@A 00440c28     <common>
 0003:00006c2c       ?id@?$money_put@DV?$ostreambuf_iterator@DV?$char_traits@D@_STL@@@_STL@@@_STL@@2V0locale@2@A 00440c2c     <common>
 0003:00006c30       ?id@?$money_put@DPAD@_STL@@2V0locale@2@A 00440c30     <common>
 0003:00006c34       ?id@?$num_get@DV?$istreambuf_iterator@DV?$char_traits@D@_STL@@@_STL@@@_STL@@2V0locale@2@A 00440c34     <common>
 0003:00006c38       ?id@?$num_get@DPBD@_STL@@2V0locale@2@A 00440c38     <common>
 0003:00006c3c       ?id@?$num_put@DV?$ostreambuf_iterator@DV?$char_traits@D@_STL@@@_STL@@@_STL@@2V0locale@2@A 00440c3c     <common>
 0003:00006c40       ?id@?$num_put@DPAD@_STL@@2V0locale@2@A 00440c40     <common>
 0003:00006c44       ?id@?$time_get@DV?$istreambuf_iterator@DV?$char_traits@D@_STL@@@_STL@@@_STL@@2V0locale@2@A 00440c44     <common>
 0003:00006c48       ?id@?$time_get@DPBD@_STL@@2V0locale@2@A 00440c48     <common>
 0003:00006c4c       ?id@?$time_put@DV?$ostreambuf_iterator@DV?$char_traits@D@_STL@@@_STL@@@_STL@@2V0locale@2@A 00440c4c     <common>
 0003:00006c50       ?id@?$time_put@DPAD@_STL@@2V0locale@2@A 00440c50     <common>
 0003:00006c54       ?id@?$money_get@GV?$istreambuf_iterator@GV?$char_traits@G@_STL@@@_STL@@@_STL@@2V0locale@2@A 00440c54     <common>
 0003:00006c58       ?id@?$money_get@GPBG@_STL@@2V0locale@2@A 00440c58     <common>
 0003:00006c5c       ?id@?$money_put@GV?$ostreambuf_iterator@GV?$char_traits@G@_STL@@@_STL@@@_STL@@2V0locale@2@A 00440c5c     <common>
 0003:00006c60       ?id@?$money_put@GPAG@_STL@@2V0locale@2@A 00440c60     <common>
 0003:00006c64       ?id@?$num_get@GV?$istreambuf_iterator@GV?$char_traits@G@_STL@@@_STL@@@_STL@@2V0locale@2@A 00440c64     <common>
 0003:00006c68       ?id@?$num_get@GPBG@_STL@@2V0locale@2@A 00440c68     <common>
 0003:00006c6c       ?id@?$num_put@GV?$ostreambuf_iterator@GV?$char_traits@G@_STL@@@_STL@@@_STL@@2V0locale@2@A 00440c6c     <common>
 0003:00006c70       ?id@?$num_put@GPAG@_STL@@2V0locale@2@A 00440c70     <common>
 0003:00006c74       ?id@?$time_get@GV?$istreambuf_iterator@GV?$char_traits@G@_STL@@@_STL@@@_STL@@2V0locale@2@A 00440c74     <common>
 0003:00006c78       ?id@?$time_get@GPBG@_STL@@2V0locale@2@A 00440c78     <common>
 0003:00006c7c       ?id@?$time_put@GV?$ostreambuf_iterator@GV?$char_traits@G@_STL@@@_STL@@@_STL@@2V0locale@2@A 00440c7c     <common>
 0003:00006c80       ?id@?$time_put@GPAG@_STL@@2V0locale@2@A 00440c80     <common>
 0003:00006c84       ___mbcodepage              00440c84     <common>
 0003:00006c90       ___mbulinfo                00440c90     <common>
 0003:00006c9c       ___ismbcodepage            00440c9c     <common>
 0003:00006ca0       __mbcasemap                00440ca0     <common>
 0003:00006da0       __mbctype                  00440da0     <common>
 0003:00006ea4       ___mblcid                  00440ea4     <common>
 0003:00006ea8       ___env_initialized         00440ea8     <common>
 0003:00006eac       ___mbctype_initialized     00440eac     <common>
 0003:00006eb0       ___onexitend               00440eb0     <common>
 0003:00006eb4       ___onexitbegin             00440eb4     <common>
 0003:00006eb8       ___sbh_sizeHeaderList      00440eb8     <common>
 0003:00006ebc       ___sbh_indGroupDefer       00440ebc     <common>
 0003:00006ec0       ___sbh_pHeaderScan         00440ec0     <common>
 0003:00006ec4       ___sbh_pHeaderDefer        00440ec4     <common>
 0003:00006ec8       ___sbh_cntHeaderList       00440ec8     <common>
 0003:00006ecc       ___sbh_pHeaderList         00440ecc     <common>
 0003:00006ed0       ___sbh_threshold           00440ed0     <common>
 0003:00006ed4       __crtheap                  00440ed4     <common>
 0003:00006ed8       ___active_heap             00440ed8     <common>
 0003:00006ee0       ___pioinfo                 00440ee0     <common>
 0003:00006fe0       __nhandle                  00440fe0     <common>
 0003:00006fe4       __acmdln                   00440fe4     <common>
 0003:00006fe8       ___piob                    00440fe8     <common>
 0003:00007000       __bufin                    00441000     <common>
 0003:00008000       __nstream                  00442000     <common>
 0004:00000000       __IMPORT_DESCRIPTOR_HanTag 00443000     HanTag:HanTag.dll
 0004:00000014       __IMPORT_DESCRIPTOR_Koma   00443014     Koma:Koma.dll
 0004:00000028       __IMPORT_DESCRIPTOR_KERNEL32 00443028     kernel32:KERNEL32.dll
 0004:0000003c       __NULL_IMPORT_DESCRIPTOR   0044303c     HanTag:HanTag.dll
 0004:00000184       __imp__LoadHanTagEngine    00443184     HanTag:HanTag.dll
 0004:00000188       __imp__EndHanTagEngine     00443188     HanTag:HanTag.dll
 0004:0000018c       __imp__FreeHanTag          0044318c     HanTag:HanTag.dll
 0004:00000190       __imp__DoKomaAndHanTag     00443190     HanTag:HanTag.dll
 0004:00000194       __imp__CreateHanTag        00443194     HanTag:HanTag.dll
 0004:00000198       \177HanTag_NULL_THUNK_DATA 00443198     HanTag:HanTag.dll
 0004:0000019c       __imp__GetFileInformationByHandle@8 0044319c     kernel32:KERNEL32.dll
 0004:000001a0       __imp__FileTimeToLocalFileTime@8 004431a0     kernel32:KERNEL32.dll
 0004:000001a4       __imp__FileTimeToSystemTime@8 004431a4     kernel32:KERNEL32.dll
 0004:000001a8       __imp__Sleep@4             004431a8     kernel32:KERNEL32.dll
 0004:000001ac       __imp__InterlockedExchange@8 004431ac     kernel32:KERNEL32.dll
 0004:000001b0       __imp__GetFileType@4       004431b0     kernel32:KERNEL32.dll
 0004:000001b4       __imp__GetLastError@0      004431b4     kernel32:KERNEL32.dll
 0004:000001b8       __imp__GetFileSize@8       004431b8     kernel32:KERNEL32.dll
 0004:000001bc       __imp__GetSystemInfo@4     004431bc     kernel32:KERNEL32.dll
 0004:000001c0       __imp__CloseHandle@4       004431c0     kernel32:KERNEL32.dll
 0004:000001c4       __imp__SetFilePointer@16   004431c4     kernel32:KERNEL32.dll
 0004:000001c8       __imp__SetEndOfFile@4      004431c8     kernel32:KERNEL32.dll
 0004:000001cc       __imp__CreateFileA@28      004431cc     kernel32:KERNEL32.dll
 0004:000001d0       __imp__ReadFile@20         004431d0     kernel32:KERNEL32.dll
 0004:000001d4       __imp__WriteFile@20        004431d4     kernel32:KERNEL32.dll
 0004:000001d8       __imp__MapViewOfFile@20    004431d8     kernel32:KERNEL32.dll
 0004:000001dc       __imp__CreateFileMappingA@24 004431dc     kernel32:KERNEL32.dll
 0004:000001e0       __imp__UnmapViewOfFile@4   004431e0     kernel32:KERNEL32.dll
 0004:000001e4       __imp__WideCharToMultiByte@32 004431e4     kernel32:KERNEL32.dll
 0004:000001e8       __imp__GetStringTypeA@20   004431e8     kernel32:KERNEL32.dll
 0004:000001ec       __imp__GetStringTypeW@16   004431ec     kernel32:KERNEL32.dll
 0004:000001f0       __imp__MultiByteToWideChar@24 004431f0     kernel32:KERNEL32.dll
 0004:000001f4       __imp__GetVersionExA@4     004431f4     kernel32:KERNEL32.dll
 0004:000001f8       __imp__GetCPInfo@8         004431f8     kernel32:KERNEL32.dll
 0004:000001fc       __imp__LCMapStringA@24     004431fc     kernel32:KERNEL32.dll
 0004:00000200       __imp__LCMapStringW@24     00443200     kernel32:KERNEL32.dll
 0004:00000204       __imp__CompareStringA@24   00443204     kernel32:KERNEL32.dll
 0004:00000208       __imp__CompareStringW@24   00443208     kernel32:KERNEL32.dll
 0004:0000020c       __imp__HeapAlloc@12        0044320c     kernel32:KERNEL32.dll
 0004:00000210       __imp__HeapFree@12         00443210     kernel32:KERNEL32.dll
 0004:00000214       __imp__RtlUnwind@16        00443214     kernel32:KERNEL32.dll
 0004:00000218       __imp__RaiseException@16   00443218     kernel32:KERNEL32.dll
 0004:0000021c       __imp__IsBadReadPtr@8      0044321c     kernel32:KERNEL32.dll
 0004:00000220       __imp__GetCommandLineA@0   00443220     kernel32:KERNEL32.dll
 0004:00000224       __imp__GetVersion@0        00443224     kernel32:KERNEL32.dll
 0004:00000228       __imp__ExitProcess@4       00443228     kernel32:KERNEL32.dll
 0004:0000022c       __imp__HeapReAlloc@16      0044322c     kernel32:KERNEL32.dll
 0004:00000230       __imp__SetHandleCount@4    00443230     kernel32:KERNEL32.dll
 0004:00000234       __imp__GetStdHandle@4      00443234     kernel32:KERNEL32.dll
 0004:00000238       __imp__GetStartupInfoA@4   00443238     kernel32:KERNEL32.dll
 0004:0000023c       __imp__SetStdHandle@8      0044323c     kernel32:KERNEL32.dll
 0004:00000240       __imp__GetModuleHandleA@4  00443240     kernel32:KERNEL32.dll
 0004:00000244       __imp__GetModuleFileNameA@12 00443244     kernel32:KERNEL32.dll
 0004:00000248       __imp__GetEnvironmentVariableA@12 00443248     kernel32:KERNEL32.dll
 0004:0000024c       __imp__HeapDestroy@4       0044324c     kernel32:KERNEL32.dll
 0004:00000250       __imp__HeapCreate@12       00443250     kernel32:KERNEL32.dll
 0004:00000254       __imp__VirtualFree@12      00443254     kernel32:KERNEL32.dll
 0004:00000258       __imp__VirtualAlloc@16     00443258     kernel32:KERNEL32.dll
 0004:0000025c       __imp__IsBadWritePtr@8     0044325c     kernel32:KERNEL32.dll
 0004:00000260       __imp__GetProcAddress@8    00443260     kernel32:KERNEL32.dll
 0004:00000264       __imp__SetUnhandledExceptionFilter@4 00443264     kernel32:KERNEL32.dll
 0004:00000268       __imp__TerminateProcess@8  00443268     kernel32:KERNEL32.dll
 0004:0000026c       __imp__GetCurrentProcess@0 0044326c     kernel32:KERNEL32.dll
 0004:00000270       __imp__HeapSize@12         00443270     kernel32:KERNEL32.dll
 0004:00000274       __imp__UnhandledExceptionFilter@4 00443274     kernel32:KERNEL32.dll
 0004:00000278       __imp__FreeEnvironmentStringsA@4 00443278     kernel32:KERNEL32.dll
 0004:0000027c       __imp__FreeEnvironmentStringsW@4 0044327c     kernel32:KERNEL32.dll
 0004:00000280       __imp__GetEnvironmentStrings@0 00443280     kernel32:KERNEL32.dll
 0004:00000284       __imp__GetEnvironmentStringsW@0 00443284     kernel32:KERNEL32.dll
 0004:00000288       __imp__FlushFileBuffers@4  00443288     kernel32:KERNEL32.dll
 0004:0000028c       __imp__IsBadCodePtr@4      0044328c     kernel32:KERNEL32.dll
 0004:00000290       __imp__GetACP@0            00443290     kernel32:KERNEL32.dll
 0004:00000294       __imp__GetOEMCP@0          00443294     kernel32:KERNEL32.dll
 0004:00000298       __imp__LoadLibraryA@4      00443298     kernel32:KERNEL32.dll
 0004:0000029c       __imp__SetEnvironmentVariableA@8 0044329c     kernel32:KERNEL32.dll
 0004:000002a0       __imp__GetTimeZoneInformation@4 004432a0     kernel32:KERNEL32.dll
 0004:000002a4       __imp__PeekNamedPipe@24    004432a4     kernel32:KERNEL32.dll
 0004:000002a8       \177KERNEL32_NULL_THUNK_DATA 004432a8     kernel32:KERNEL32.dll
 0004:000002ac       __imp__LoadKomaEngine      004432ac     Koma:Koma.dll
 0004:000002b0       __imp__EndKomaEngine       004432b0     Koma:Koma.dll
 0004:000002b4       \177Koma_NULL_THUNK_DATA   004432b4     Koma:Koma.dll

 entry point at        0001:00022805

 Static symbols

 0001:0000642b       _$E34                      0040742b f   KupTest.obj
 0001:00006435       _$E31                      00407435 f   KupTest.obj
 0001:0000643f       _$E33                      0040743f f   KupTest.obj
 0001:0000644b       _$E32                      0040744b f   KupTest.obj
 0001:00006455       _$E39                      00407455 f   KupTest.obj
 0001:0000645f       _$E36                      0040745f f   KupTest.obj
 0001:00006469       _$E38                      00407469 f   KupTest.obj
 0001:00006475       _$E37                      00407475 f   KupTest.obj
 0001:00002070       _$E34                      00403070 f   Kup.obj
 0001:0000207a       _$E31                      0040307a f   Kup.obj
 0001:00002084       _$E33                      00403084 f   Kup.obj
 0001:00002090       _$E32                      00403090 f   Kup.obj
 0001:0000209a       _$E39                      0040309a f   Kup.obj
 0001:000020a4       _$E36                      004030a4 f   Kup.obj
 0001:000020ae       _$E38                      004030ae f   Kup.obj
 0001:000020ba       _$E37                      004030ba f   Kup.obj
 0001:000026fd       _$E45                      004036fd f   Kup.obj
 0001:0000164b       _$E33                      0040264b f   KomaWrap.obj
 0001:00001655       _$E30                      00402655 f   KomaWrap.obj
 0001:0000165f       _$E32                      0040265f f   KomaWrap.obj
 0001:0000166b       _$E31                      0040266b f   KomaWrap.obj
 0001:00001675       _$E38                      00402675 f   KomaWrap.obj
 0001:0000167f       _$E35                      0040267f f   KomaWrap.obj
 0001:00001689       _$E37                      00402689 f   KomaWrap.obj
 0001:00001695       _$E36                      00402695 f   KomaWrap.obj
 0001:0001d920       _$E37                      0041e920 f   stlport_vc6_static:monetary.obj
 0001:0001d930       _$E34                      0041e930 f   stlport_vc6_static:monetary.obj
 0001:0001da10       _$E36                      0041ea10 f   stlport_vc6_static:monetary.obj
 0001:0001da20       _$E35                      0041ea20 f   stlport_vc6_static:monetary.obj
 0001:0001da30       _$E42                      0041ea30 f   stlport_vc6_static:monetary.obj
 0001:0001da40       _$E39                      0041ea40 f   stlport_vc6_static:monetary.obj
 0001:0001db20       _$E41                      0041eb20 f   stlport_vc6_static:monetary.obj
 0001:0001db30       _$E40                      0041eb30 f   stlport_vc6_static:monetary.obj
 0001:0001dbb0       ?_Init_monetary_formats@_STL@@YAXAAUpattern@money_base@1@0@Z 0041ebb0 f   stlport_vc6_static:monetary.obj
 0001:0001ce30       _$E25                      0041de30 f   stlport_vc6_static:numpunct.obj
 0001:0001ce40       _$E21                      0041de40 f   stlport_vc6_static:numpunct.obj
 0001:0001cf20       _$E24                      0041df20 f   stlport_vc6_static:numpunct.obj
 0001:0001cf30       _$E22                      0041df30 f   stlport_vc6_static:numpunct.obj
 0001:0001cf50       _$E30                      0041df50 f   stlport_vc6_static:numpunct.obj
 0001:0001cf60       _$E27                      0041df60 f   stlport_vc6_static:numpunct.obj
 0001:0001d040       _$E29                      0041e040 f   stlport_vc6_static:numpunct.obj
 0001:0001d050       _$E28                      0041e050 f   stlport_vc6_static:numpunct.obj
 0001:0001d070       _$E35                      0041e070 f   stlport_vc6_static:numpunct.obj
 0001:0001d080       _$E32                      0041e080 f   stlport_vc6_static:numpunct.obj
 0001:0001d160       _$E34                      0041e160 f   stlport_vc6_static:numpunct.obj
 0001:0001d170       _$E33                      0041e170 f   stlport_vc6_static:numpunct.obj
 0001:0001d430       _$E41                      0041e430 f   stlport_vc6_static:numpunct.obj
 0001:0001d440       _$E37                      0041e440 f   stlport_vc6_static:numpunct.obj
 0001:0001d520       _$E40                      0041e520 f   stlport_vc6_static:numpunct.obj
 0001:0001d530       _$E38                      0041e530 f   stlport_vc6_static:numpunct.obj
 0001:0001d550       _$E46                      0041e550 f   stlport_vc6_static:numpunct.obj
 0001:0001d560       _$E43                      0041e560 f   stlport_vc6_static:numpunct.obj
 0001:0001d640       _$E45                      0041e640 f   stlport_vc6_static:numpunct.obj
 0001:0001d650       _$E44                      0041e650 f   stlport_vc6_static:numpunct.obj
 0001:0001d670       _$E51                      0041e670 f   stlport_vc6_static:numpunct.obj
 0001:0001d680       _$E48                      0041e680 f   stlport_vc6_static:numpunct.obj
 0001:0001d760       _$E50                      0041e760 f   stlport_vc6_static:numpunct.obj
 0001:0001d770       _$E49                      0041e770 f   stlport_vc6_static:numpunct.obj
 0001:0001af70       _$E36                      0041bf70 f   stlport_vc6_static:fstream.obj
 0001:0001af80       _$E33                      0041bf80 f   stlport_vc6_static:fstream.obj
 0001:0001af90       _$E35                      0041bf90 f   stlport_vc6_static:fstream.obj
 0001:0001afa0       _$E34                      0041bfa0 f   stlport_vc6_static:fstream.obj
 0001:00018050       _$E36                      00419050 f   stlport_vc6_static:iostream.obj
 0001:00018060       _$E33                      00419060 f   stlport_vc6_static:iostream.obj
 0001:00018070       _$E35                      00419070 f   stlport_vc6_static:iostream.obj
 0001:00018080       _$E34                      00419080 f   stlport_vc6_static:iostream.obj
 0001:000180a0       _$E41                      004190a0 f   stlport_vc6_static:iostream.obj
 0001:000180b0       _$E38                      004190b0 f   stlport_vc6_static:iostream.obj
 0001:000180c0       _$E40                      004190c0 f   stlport_vc6_static:iostream.obj
 0001:000180d0       _$E39                      004190d0 f   stlport_vc6_static:iostream.obj
 0001:000180f0       _$E46                      004190f0 f   stlport_vc6_static:iostream.obj
 0001:00018100       _$E43                      00419100 f   stlport_vc6_static:iostream.obj
 0001:00018110       _$E45                      00419110 f   stlport_vc6_static:iostream.obj
 0001:00018120       _$E44                      00419120 f   stlport_vc6_static:iostream.obj
 0001:00018140       _$E51                      00419140 f   stlport_vc6_static:iostream.obj
 0001:00018150       _$E48                      00419150 f   stlport_vc6_static:iostream.obj
 0001:00018160       _$E50                      00419160 f   stlport_vc6_static:iostream.obj
 0001:00018170       _$E49                      00419170 f   stlport_vc6_static:iostream.obj
 0001:00018190       _$E56                      00419190 f   stlport_vc6_static:iostream.obj
 0001:000181a0       _$E53                      004191a0 f   stlport_vc6_static:iostream.obj
 0001:000181b0       _$E55                      004191b0 f   stlport_vc6_static:iostream.obj
 0001:000181c0       _$E54                      004191c0 f   stlport_vc6_static:iostream.obj
 0001:000181e0       _$E61                      004191e0 f   stlport_vc6_static:iostream.obj
 0001:000181f0       _$E58                      004191f0 f   stlport_vc6_static:iostream.obj
 0001:00018200       _$E60                      00419200 f   stlport_vc6_static:iostream.obj
 0001:00018210       _$E59                      00419210 f   stlport_vc6_static:iostream.obj
 0001:00018230       _$E66                      00419230 f   stlport_vc6_static:iostream.obj
 0001:00018240       _$E63                      00419240 f   stlport_vc6_static:iostream.obj
 0001:00018250       _$E65                      00419250 f   stlport_vc6_static:iostream.obj
 0001:00018260       _$E64                      00419260 f   stlport_vc6_static:iostream.obj
 0001:00018280       _$E71                      00419280 f   stlport_vc6_static:iostream.obj
 0001:00018290       _$E68                      00419290 f   stlport_vc6_static:iostream.obj
 0001:000182a0       _$E70                      004192a0 f   stlport_vc6_static:iostream.obj
 0001:000182b0       _$E69                      004192b0 f   stlport_vc6_static:iostream.obj
 0001:000085e0       _$E45                      004095e0 f   stlport_vc6_static:locale_impl.obj
 0001:000085f0       _$E42                      004095f0 f   stlport_vc6_static:locale_impl.obj
 0001:00008600       _$E44                      00409600 f   stlport_vc6_static:locale_impl.obj
 0001:00008610       _$E43                      00409610 f   stlport_vc6_static:locale_impl.obj
 0001:00008850       _$E74                      00409850 f   stlport_vc6_static:locale_impl.obj
 0001:00008860       _$E71                      00409860 f   stlport_vc6_static:locale_impl.obj
 0001:00008870       _$E73                      00409870 f   stlport_vc6_static:locale_impl.obj
 0001:00008880       _$E72                      00409880 f   stlport_vc6_static:locale_impl.obj
 0001:00008eb0       ?_Stl_loc_assign_ids@_STL@@YAXXZ 00409eb0 f   stlport_vc6_static:locale_impl.obj
 0001:000090d0       _$E79                      0040a0d0 f   stlport_vc6_static:locale_impl.obj
 0001:000090e0       _$E76                      0040a0e0 f   stlport_vc6_static:locale_impl.obj
 0001:000091c0       _$E78                      0040a1c0 f   stlport_vc6_static:locale_impl.obj
 0001:000091d0       _$E77                      0040a1d0 f   stlport_vc6_static:locale_impl.obj
 0001:0002f2d4       _cvtdate                   004302d4 f   LIBC:tzset.obj
 0001:0002edf6       _findenv                   0042fdf6 f   LIBC:setenv.obj
 0001:0002ee4e       _copy_environ              0042fe4e f   LIBC:setenv.obj
 0001:0002ec44       _strncnt                   0042fc44 f   LIBC:a_cmp.obj
 0001:0002ec44       _strncnt                   0042fc44 f   LIBC:a_cmp.obj
 0001:0002d9c3       _getSystemCP               0042e9c3 f   LIBC:mbctype.obj
 0001:0002da0d       _CPtoLCID                  0042ea0d f   LIBC:mbctype.obj
 0001:0002da40       _setSBCS                   0042ea40 f   LIBC:mbctype.obj
 0001:0002da69       _setSBUpLow                0042ea69 f   LIBC:mbctype.obj
 0001:0002d512       __abstract_cw              0042e512 f   LIBC:ieee87.obj
 0001:0002d5a4       __hw_cw                    0042e5a4 f   LIBC:ieee87.obj
 0001:0002c32c       _strtoxl                   0042d32c f   LIBC:strtol.obj
 0001:0002bb41       _siglookup                 0042cb41 f   LIBC:winsig.obj
 0001:0002b5a2       _parse_cmdline             0042c5a2 f   LIBC:stdargv.obj
 0001:0002b40d       _xcptlookup                0042c40d f   LIBC:winxfltr.obj
 0001:0002b1b7       ?strlen@@YAIPBD@Z          0042c1b7 f   LIBC:undname.obj
 0001:0002b1c7       ?strncpy@@YAPADPADPBDI@Z   0042c1c7 f   LIBC:undname.obj
 0001:00026c35       _doexit                    00427c35 f   LIBC:crt0dat.obj
 0001:00026cce       __initterm                 00427cce f   LIBC:crt0dat.obj
 0001:00026ac2       __cftoe_g                  00427ac2 f   LIBC:cvt.obj
 0001:00026ae9       __cftof_g                  00427ae9 f   LIBC:cvt.obj
 0001:00026b5d       __shift                    00427b5d f   LIBC:cvt.obj
 0001:0002641d       _write_char                0042741d f   LIBC:output.obj
 0001:00026452       _write_multi_char          00427452 f   LIBC:output.obj
 0001:00026483       _write_string              00427483 f   LIBC:output.obj
 0001:000264bb       _get_int_arg               004274bb f   LIBC:output.obj
 0001:000264c8       _get_int64_arg             004274c8 f   LIBC:output.obj
 0001:000264d8       _get_short_arg             004274d8 f   LIBC:output.obj
 0001:00025098       ?FindHandler@@YAXPAUEHExceptionRecord@@PAUEHRegistrationNode@@PAU_CONTEXT@@PAXPBU_s_FuncInfo@@EH1@Z 00426098 f   LIBC:frame.obj
 0001:0002523f       ?FindHandlerForForeignException@@YAXPAUEHExceptionRecord@@PAUEHRegistrationNode@@PAU_CONTEXT@@PAXPBU_s_FuncInfo@@HH1@Z 0042623f f   LIBC:frame.obj
 0001:000252e7       ?TypeMatch@@YAHPBU_s_HandlerType@@PBU_s_CatchableType@@PBU_s_ThrowInfo@@@Z 004262e7 f   LIBC:frame.obj
 0001:000253e2       ?FrameUnwindFilter@@YAHPAU_EXCEPTION_POINTERS@@@Z 004263e2 f   LIBC:frame.obj
 0001:000253f8       ?CatchIt@@YAXPAUEHExceptionRecord@@PAUEHRegistrationNode@@PAU_CONTEXT@@PAXPBU_s_FuncInfo@@PBU_s_HandlerType@@PBU_s_CatchableType@@PBU_s_TryBlockMapEntry@@H1E@Z 004263f8 f   LIBC:frame.obj
 0001:00025473       ?CallCatchBlock@@YAPAXPAUEHExceptionRecord@@PAUEHRegistrationNode@@PAU_CONTEXT@@PBU_s_FuncInfo@@PAXHK@Z 00426473 f   LIBC:frame.obj
 0001:0002557f       ?ExFilterRethrow@@YAHPAU_EXCEPTION_POINTERS@@@Z 0042657f f   LIBC:frame.obj
 0001:000255a9       ?BuildCatchObject@@YAXPAUEHExceptionRecord@@PAUEHRegistrationNode@@PBU_s_HandlerType@@PBU_s_CatchableType@@@Z 004265a9 f   LIBC:frame.obj
 0001:000257d4       ?AdjustPointer@@YAPAXPAXABUPMD@@@Z 004267d4 f   LIBC:frame.obj
 0001:000236f0       _flsall                    004246f0 f   LIBC:fflush.obj
 0001:00023610       __fpcvt                    00424610 f   LIBC:fcvt.obj
 0001:000253e2       ?ArrayUnwindFilter@@YAHPAU_EXCEPTION_POINTERS@@@Z 004263e2 f   LIBC:frame.obj
 0001:00022909       _fast_error_exit           00423909 f   LIBC:crt0.obj
 0001:00021ae4       _gu_return                 00422ae4 f   LIBC:exsup.obj
 0001:00021aec       __unwind_handler           00422aec f   LIBC:exsup.obj
 0001:00021900       ?CatchGuardHandler@@YA?AW4_EXCEPTION_DISPOSITION@@PAUEHExceptionRecord@@PAUCatchGuardRN@@PAX2@Z 00422900 f   LIBC:trnsctrl.obj
 0001:000219d9       ?TranslatorGuardHandler@@YA?AW4_EXCEPTION_DISPOSITION@@PAUEHExceptionRecord@@PAUTranslatorGuardRN@@PAX2@Z 004229d9 f   LIBC:trnsctrl.obj
 0001:00021520       LeadUp1                    00422520 f   LIBC:memmove.obj
 0001:0002154c       LeadUp2                    0042254c f   LIBC:memmove.obj
 0001:00021570       LeadUp3                    00422570 f   LIBC:memmove.obj
 0001:000215ef       UnwindUp0                  004225ef f   LIBC:memmove.obj
 0001:000215dc       UnwindUp1                  004225dc f   LIBC:memmove.obj
 0001:000215d4       UnwindUp2                  004225d4 f   LIBC:memmove.obj
 0001:000215cc       UnwindUp3                  004225cc f   LIBC:memmove.obj
 0001:000215c4       UnwindUp4                  004225c4 f   LIBC:memmove.obj
 0001:000215bc       UnwindUp5                  004225bc f   LIBC:memmove.obj
 0001:000215b4       UnwindUp6                  004225b4 f   LIBC:memmove.obj
 0001:000215ac       UnwindUp7                  004225ac f   LIBC:memmove.obj
 0001:00021608       TrailUp0                   00422608 f   LIBC:memmove.obj
 0001:00021610       TrailUp1                   00422610 f   LIBC:memmove.obj
 0001:0002161c       TrailUp2                   0042261c f   LIBC:memmove.obj
 0001:00021630       TrailUp3                   00422630 f   LIBC:memmove.obj
 0001:000216a8       LeadDown1                  004226a8 f   LIBC:memmove.obj
 0001:000216c8       LeadDown2                  004226c8 f   LIBC:memmove.obj
 0001:000216f0       LeadDown3                  004226f0 f   LIBC:memmove.obj
 0001:00021744       UnwindDown7                00422744 f   LIBC:memmove.obj
 0001:0002174c       UnwindDown6                0042274c f   LIBC:memmove.obj
 0001:00021754       UnwindDown5                00422754 f   LIBC:memmove.obj
 0001:0002175c       UnwindDown4                0042275c f   LIBC:memmove.obj
 0001:00021764       UnwindDown3                00422764 f   LIBC:memmove.obj
 0001:0002176c       UnwindDown2                0042276c f   LIBC:memmove.obj
 0001:00021774       UnwindDown1                00422774 f   LIBC:memmove.obj
 0001:00021787       UnwindDown0                00422787 f   LIBC:memmove.obj
 0001:000217a0       TrailDown0                 004227a0 f   LIBC:memmove.obj
 0001:000217a8       TrailDown1                 004227a8 f   LIBC:memmove.obj
 0001:000217b8       TrailDown2                 004227b8 f   LIBC:memmove.obj
 0001:000217cc       TrailDown3                 004227cc f   LIBC:memmove.obj
 0001:00021180       LeadUp1                    00422180 f   LIBC:memcpy.obj
 0001:000211ac       LeadUp2                    004221ac f   LIBC:memcpy.obj
 0001:000211d0       LeadUp3                    004221d0 f   LIBC:memcpy.obj
 0001:0002124f       UnwindUp0                  0042224f f   LIBC:memcpy.obj
 0001:0002123c       UnwindUp1                  0042223c f   LIBC:memcpy.obj
 0001:00021234       UnwindUp2                  00422234 f   LIBC:memcpy.obj
 0001:0002122c       UnwindUp3                  0042222c f   LIBC:memcpy.obj
 0001:00021224       UnwindUp4                  00422224 f   LIBC:memcpy.obj
 0001:0002121c       UnwindUp5                  0042221c f   LIBC:memcpy.obj
 0001:00021214       UnwindUp6                  00422214 f   LIBC:memcpy.obj
 0001:0002120c       UnwindUp7                  0042220c f   LIBC:memcpy.obj
 0001:00021268       TrailUp0                   00422268 f   LIBC:memcpy.obj
 0001:00021270       TrailUp1                   00422270 f   LIBC:memcpy.obj
 0001:0002127c       TrailUp2                   0042227c f   LIBC:memcpy.obj
 0001:00021290       TrailUp3                   00422290 f   LIBC:memcpy.obj
 0001:00021308       LeadDown1                  00422308 f   LIBC:memcpy.obj
 0001:00021328       LeadDown2                  00422328 f   LIBC:memcpy.obj
 0001:00021350       LeadDown3                  00422350 f   LIBC:memcpy.obj
 0001:000213a4       UnwindDown7                004223a4 f   LIBC:memcpy.obj
 0001:000213ac       UnwindDown6                004223ac f   LIBC:memcpy.obj
 0001:000213b4       UnwindDown5                004223b4 f   LIBC:memcpy.obj
 0001:000213bc       UnwindDown4                004223bc f   LIBC:memcpy.obj
 0001:000213c4       UnwindDown3                004223c4 f   LIBC:memcpy.obj
 0001:000213cc       UnwindDown2                004223cc f   LIBC:memcpy.obj
 0001:000213d4       UnwindDown1                004223d4 f   LIBC:memcpy.obj
 0001:000213e7       UnwindDown0                004223e7 f   LIBC:memcpy.obj
 0001:00021400       TrailDown0                 00422400 f   LIBC:memcpy.obj
 0001:00021408       TrailDown1                 00422408 f   LIBC:memcpy.obj
 0001:00021418       TrailDown2                 00422418 f   LIBC:memcpy.obj
 0001:0002142c       TrailDown3                 0042242c f   LIBC:memcpy.obj

FIXUPS: 22493 fffffbd3 13 14 25 32 dd4 41 37 fffffe3b 8 8 19 ffffff9a a
FIXUPS: 22d45 ffffff18 d 1c 7 11 30 7 12 25 fffffed6 fffffefe fffffd6b
FIXUPS: 22898 55 2f 103 17 3c 48 fffff9a3 c 17 1220 6 fffffe99 fffffef1
FIXUPS: 23449 12 58 e fffffea6 1f f 3c 13 11 ffffff0f 11 b ffffffb3 1d
FIXUPS: 23220 5 a ffffffbe 17 13 ffffffae 11 9 ffffffb3 fffffdb9 24 8 8e8
FIXUPS: 2386b a 10 a 5 5 1c c 11 e e 9 1c 9 fffffda8 12 c 18 14 d 41 e
FIXUPS: 237a8 e 24 e d fffffe7b 8 17 7 f98 ffffff11 fffffd34 fffffe0f e
FIXUPS: 24112 fffffcd4 15 27 1e d 1c 6 b 3e 9 3b 4d 27 12 1d c 36 c 34
FIXUPS: 24065 fffffb69 ffffff20 45 fffffdfd 7 9 1420 1b 32 14 d fffffd09
FIXUPS: 24ae7 ffffffc2 b ffffff99 fffffe98 c2 32 fffffee3 ffffff8f d 30
FIXUPS: 24803 ffffff93 6 2b fffffe94 9 18 3c 32 34 1b fffffe85 16 20 8
FIXUPS: 26657 12 16 30 12 15 9 a e e 18 c e c 7 1f 43 24 ffffe97c 106 f
FIXUPS: 25a19 157 b2 51 4f b6 80 ffffee55 8b 56 e 134e 2f 4b b 1e 32 49
FIXUPS: 261ea 1f 28 a 2a 1e 51 3a 78 1b e 45 1f 17 11 21 e 7d 2c 14 4a
FIXUPS: 26578 93 12 1c d01 1c 27 17 1e 18 11 60 32 37 fffff71a 48 50 22
FIXUPS: 26b0f 16 ffffff43 24 ffffffa9 ffffff8a ffffff6c 17 9 c 1e 12 ffffff17
FIXUPS: 268f4 ffffff2b 22 fffff7ce 23 1a84 24 23 2e 16 13 19 b fffffbcb
FIXUPS: 276d9 ffffffbc ffffff91 fffff74f 40 9d 19 68 8a d 2e 25 74 80 be
FIXUPS: 271aa 18 c 15 8 8f 12 98 ad7 38 1b fffffeb9 1c f 15 fffffeb5 f
FIXUPS: 27c1c 11 73 11 fffffef0 f fffffba1 1b ae 1b 3d 13 26 41 a4 1d 20
FIXUPS: 279e3 2d 9 1f 27 45 4406 2c a 18 11 f 61 11 c c 48 43 1c 18 14
FIXUPS: 2c0ca e 35 10 26 b 5f ffffbe02 19 ffffff52 21 2b 12 ffffff17 25
FIXUPS: 27dc7 b 3d8b 14 c c 29 c 9 14 e c 22 15 9 c 9 f 1c 20 c 11 e 1e
FIXUPS: 2bcfe 36 16 d 92 c 61 28 10 e fffffa3f 13 1b 1e 27 3b 10 10 78
FIXUPS: 2ba29 f 7 c 15 8 f 7 c 16 8 f c 16 b c 16 8 f 7 c 18 c fffff912
FIXUPS: 2b46f 18 20 18 a 1a 16 7 c c 15 b 9 1e b c 9 18 7 8 c 67 66 6a
FIXUPS: 2b6f8 48 a 7c 8c 3e c fffff9ca 9 c a 15 7 1d 18 7 7 9 17 10 7 d
FIXUPS: 2b33d b 9 31 c 16 8 1f 17 7 9 8 23 8 1c 10 7 fffffbe6 14 7 c 10
FIXUPS: 2b091 12 15 7 12 15 14 7 c 30 11 15 17 d 14 7 1f 2a 9 10 7 e 9
FIXUPS: 2b22d 15 7 16 fffffbd7 9 2e 7 c 1b 8 9 10 7 18 a 15 3f 8 9 12 a
FIXUPS: 2af80 7 c 1a 7 c 14 12 14 7 12 7 10 7 fffffba5 40 8 e 15 7 d c
FIXUPS: 2ac89 f f 17 8 f 8 c e b c 39 2d b 13 7 9 7 a 2a b 26 8 19 fffffc02
FIXUPS: 2aa3c a 1a 7 e a 1c 8 9 b a 8 16 7 e 9 f b c 9 12 7 e 9 1f 15 a
FIXUPS: 2aba5 a f c fffffb80 8 10 9 d c 15 14 43 34 7 c c 10 b6 b 20 7
FIXUPS: 2a947 13 10 7 10 14 7 c 32 a 1d 10 7 10 fffff9bf d 79 7 6f 14 a
FIXUPS: 2a509 1f 7 1a 7 c 8 15 7 c c d b 8 16 12 14 12 15 7 a9 3c 13 7
FIXUPS: 2a72d fffff977 47 11 e 9 18 16 21 7 26 24 19 14 22 18 35 2a c a
FIXUPS: 2a2b1 c f c 2a 9 b 13 7 22 7 7 2b fffffa94 9 21 a 1f 7 7 9 c 30
FIXUPS: 29f0b a c 10 24 d 18 21 11 16 12 10 c c 15 7 14 2a 12 8 e b fffff6a1
FIXUPS: 297c9 7 c a9 7 c 64 7 58 7 4d 7 c 45 7 c c 315 a 2b b a f c d c
FIXUPS: 29dcd 9 a 30 8 fffff56e b c b 40 7 e 9 f 11 9 9 10 7 e 9 1e 15
FIXUPS: 294a3 b a 22 13 34 20 20 7 7 63 134 7 12 fffffa85 16 7 e a d 8
FIXUPS: 291f6 31 d 9 d 27 a b a 20 8 9 10 a 8 c 1d 7 c d a f 14 7 c fffffb6a
FIXUPS: 28eef 53 7 1f b 12 7 a 13 16 5 a 15 1d 7 a7 10 7 c b a 38 1d 7
FIXUPS: 29149 9 12 8 9 18 10 fffffa70 1e 12 1d 42 24 f 31 17 18 9 16 13
FIXUPS: 28d68 1b 7 d a a b 20 c 16 4d 18 9 28 7 10 e 9 a fffffa44 b 2e
FIXUPS: 2894a 2c 8 9 23 a 1f 7 7 9 c 23 15 f 7 a 71 b ad b b 27 9 d 10
FIXUPS: 28be1 c 8 e fffffa82 9 d 10 1f 7 7 15 8 19 7 c c 1c c 42 35 18
FIXUPS: 287eb c 19 7 c 54 11 22 8 7 9 1b 10 7 fffffaa6 11 9 14 c 17 8 59
FIXUPS: 28456 e 29 7 95 18 9 a 8 c 35 18 17 42 f 8 9 f 8 9 f 8 9 f fffffa70
FIXUPS: 280f4 19 b a 36 e 11 13 18 2d 2e 9 a 20 9 1d 7 9 c 10 32 a e e
FIXUPS: 282f0 1f b 30 a 13 a 4689 fffffdf9 23 44 13 fffffcaf 35 f 10 17
FIXUPS: 2c45e 19 14 14 12 f e 9 17 fffffde6 ffffff7b d 11 2f 25 ffffbd5d
FIXUPS: 28026 44 c 36 8 26 5337 2b 1c fffffe85 ffffff90 f 32 ffffff27 3e
FIXUPS: 2d042 e1 3a fffffd70 107 fffffe6e ffffffc5 9 fffffe8c 1c fffffdb6
FIXUPS: 2ca99 fffffe0c 16 8a 15 13 1a 14 d 11 12 16 1294 61 ec 4a 78 76
FIXUPS: 2d742 17 5c f 151 12 16 c 1d 18 a c e 17 10 24 54 16 20 c 21 c
FIXUPS: 2d664 10 fffffcb0 30 19c3 fffffb20 10c 3a 31 5 151 24 28 aa fffffc2a
FIXUPS: 2e7e0 24 ffffff98 ffffff78 ffffffe7 ffffff79 5d fffffe03 17 20
FIXUPS: 2e387 59 23 3e 29 16 11 e fffffba9 e5 fffffad7 1b4f fffffd31 47
FIXUPS: 2f50c 10c fffffc06 14 18 18 96 6 a 6 1b 4b fffffdf0 63 fffffeea
FIXUPS: 2f0ec fffffdd3 1d 4e 19 46 1d 26 9 d 9 fffffdc3 a ffffff55 fa2
FIXUPS: 2fccb 1b 1b 21 1c 1f 28 28 8 11 24 25 6c 10 12 fffffba9 17 10f
FIXUPS: 2fbdb fffffc17 7c b4 fffffd11 38 18 28 b 1f 2f 11 6 fffd8ece 16
FIXUPS: 860b 20 2d 199fd e729 66 fffffdf9 6d 60 5d fffffd8e 7 d fffffa16
FIXUPS: 2feee 11a 15 6 7 17 e 1e 2e 2b 42 ba 4f 2f 15 fffffa2f fffd8002
FIXUPS: 7ca0 292c4 a fffd6db6 69 20 2d 29 1f 2b 1a 2911d a fffd706b 28fab
FIXUPS: 30fae fffd720f 15 1a 15 bd 48 28 8f 15 1a 15 7c 44 d2 4a dbd 11
FIXUPS: 93ed 59 84 11 42 3b 6a ffffe0b5 d 24 b 58 29 297f3 a fffd698a 29
FIXUPS: 30f47 a fffd6a09 31 4f 76 34 12 14f 22 1c 19 22 e16 d 20 7f 1e
FIXUPS: 8b4e 284d6 b fffd7b85 20 20 20 20 b4 3c 97 4d 73 12 e6 96 34 2d
FIXUPS: 9107 97 29 2e 43 51 31 27d8a b 1298 b b a fffe685a 23 26d 25 fffef8d0
FIXUPS: 8758 3e 38 25 287d4 c c b fffd782a d 13 d 20 50 95 72 3e 38 25
FIXUPS: 30ff7 c c b fffe716c 15 12 1a117 a fffe5f56 24 a8 7c 20 5d 5d 70
FIXUPS: 18534 66 41 9a 26 a 1c 2b 56 5f 27 83 31 25 4b 3a 1d 17 1a ffffef12
FIXUPS: 1789e 22 4f 44 23 54 35 2b 4f 3d 16 17 13 1a79e 8 8 a fffe59a4
FIXUPS: 17e3a ce 12 13 25 80 f 1a 4a b e3 f 38 ffffecfa 206 de 12 13 25
FIXUPS: 17227 f 1a 4b b 1a ba f 3b c 15 12 1ae7d a fffe51f6 22 a8 77 10
FIXUPS: 1766f 6f 46 23 91 84 20 fffff0a5 40 1e 1e 1b867 8 a fffe47e1 f
FIXUPS: 16a31 20 40 1e 1e 1b757 8 a fffe48eb e 22 51 f 71 10 54 2a 1b594
FIXUPS: 3224c 8 8 a fffe4be9 fffff4f3 f 70 10 54 2a 1bd65 8 8 8 a fffe42cb
FIXUPS: 164b6 d8 a3 5a 40 25 49 35 31 24 21 2d 24 1e 17 1b97d a fffe46d6
FIXUPS: 168d6 2b fffff4a4 4e 20 2c 10 1c325 8 a fffe3d1a b 2a 20 4e 20
FIXUPS: 15f8f 10 1c1f5 8 a fffe3e8a 25 62 30 2c 4a 84 40 2f 29 48 e 22
FIXUPS: 14dea ee 55 43 48 4b 41 37 28 4c 44 21 16 2a 3e 11 142 2e 9b 65
FIXUPS: 155db 34 9b 6b 1ae e8 2c6 15 1d ad b 2a ffffebff 1a 3f e 1a 2f
FIXUPS: 14a57 11 11 1d68b 16 17 9 8 8 8 8 a fffe2984 55 43 48 4b 41 37
FIXUPS: 14cb3 4c 44 21 16 2a 35 1d315 fffe218a f 2b 31 3a 98 f 45 34 3c
FIXUPS: 144b5 40 b6 39 36 91 f 50 3d 3c 8d 19 1b 1b 12 15 1d 1b 57 27 24
FIXUPS: 13931 28 94 11 97 13 74 71 62 22 28 8d 11 96 13 7d 71 75 17 11
FIXUPS: 13f26 11 92 d2 3f 1f 14 1dfb7 8 8 8 8 fffe1353 d 17 9 1e 25 11
FIXUPS: 134cd 17 9 32 32 17 2b 24 40 1ea8d 8 8 8 8 a fffe1591 22 28 8c
FIXUPS: 13726 96 13 71 71 5e fffff7b3 15 d 17 9 1e 25 11 15 17 9 32 32
FIXUPS: 13208 2b 24 40 1edad 8 8 8 8 a fffe1287 c 34 11 10 39 39 3c 1e
FIXUPS: 12a9d 32 32 17 2b 24 40 1f45d 8 8 8 8 a fffe0bc1 25 3a 95 1c 14
FIXUPS: 12da8 45 1c 73 8d 8c c 34 11 10 39 39 3c fffff2dd 80 89 65 25 3a
FIXUPS: 125ed 1c 14 95 45 1c 8f 89 7a c 34 11 10 39 39 3c 1e 15 d 17 9
FIXUPS: 12a32 25 11 15 17 1f3f3 19 1a c b b 19 1a c 8 8 1c 1a 1a 1c c b
FIXUPS: 31fb9 b 8 8 8 b a fffe016e 25 3a 9d 1c 14 95 45 fffff5fe 18 23
FIXUPS: 119c1 23 19 51 11 11 14 22 1a 37 57 118 74 3a 53 4e 4b 65 47 49
FIXUPS: 11f8b 38 46 7c 4e 11 11 11 14 1fd2a 8 8 8 8 a fffdf734 15 10 14
FIXUPS: 11671 23 1e 15 18 23 23 3e 1f 20 15 18 20 23 43 11 14 44 22 29
FIXUPS: 1192e 20 20394 1c 1d c b b b b b 1c 1d c b b 1c 1f c b b a fffdf577
FIXUPS: 113a3 a7 39 c 3a 11 11 22 3e 208e9 8 fffdf130 12 23 22 57 11 11
FIXUPS: 11072 11 11 36 11 11 3d 11 11 11 55 29 74 4a 11 14 35 11 11 14
FIXUPS: 31c87 1c 1d c b fffdedfb 19 6d 25 1d 2f 21 82 24 24 15 18 23 23
FIXUPS: 10d7d 14 47 14 2d 9 e 16 1b 18 38 16 14 1f 1b 14 2c 9 fffff717
FIXUPS: 10698 23 1c 24 20 15 18 23 23 27 f 55 32 14 25 1c 15 25 1c 14 25
FIXUPS: 1094b 25 24 20 18 1b 23 23 3c 29 ffffefae 48 4b 41 37 28 4c 44
FIXUPS: fc24 16 21 3e 11 13b 2e 95 65 18e 34 95 6b 1b6 e9 c7 44 15 14 12
FIXUPS: 10605 25 1e 15 ffffee64 1a 2f 23 11 11 226c5 16 17 9 8 8 8 8 a
FIXUPS: f5b8 55 43 48 4b 41 37 28 4c 44 21 16 21 35 11 f7 55 fffff2e8 79
FIXUPS: ed8e 47 40 40 c7 3d 77 30 47 a3 f 42 3e 75 30 47 8b 19 1b 1b 12
FIXUPS: f366 1d 1b 54 26 24 22 1a 3c ffffefaa 93 13 7a 6c 79 17 11 1b 11
FIXUPS: e747 9a 26 4e 1a 14 23351 8 8 8 8 a fffdce5a f 2e 35 77 30 47 a9
FIXUPS: ec70 3e fffff0b5 28 22 40 23da7 8 8 8 8 a fffdc26e 1f 22 7f 11
FIXUPS: df90 13 6e 6c 5f 1f 22 87 11 94 13 71 6c 53 1f 22 80 fffff5cc 26
FIXUPS: da53 28 22 40 24077 8 8 8 8 a fffdbfc1 c 34 11 e 43 3d 1e 15 d
FIXUPS: dc75 9 1e 25 11 10 12 9 2c 26 23ddd 8 a fffdb951 25 31 8e 1c 14
FIXUPS: d638 45 1c 73 85 9e c 34 11 e 43 3d 1e 15 d 17 9 1e 25 11 10 12
FIXUPS: d9ed fffff5b2 45 1c 8f 81 8f c 34 11 e 43 3d 1e 15 d 17 9 1e 25
FIXUPS: d332 10 12 9 2c 26 14 28 22 40 246c7 8 8 ffffff20 1a 1d 1c c b
FIXUPS: 31ab9 b 8 8 8 b 8 b a fffdaf6b 25 31 93 1c 14 95 45 1c 80 81 70
FIXUPS: ce14 31 95 1c 14 fffff58a 112 74 3a 58 51 4c 60 47 47 3a 40 38
FIXUPS: c92c 24 3c 4e 11 11 11 14 24f66 19 1a c b b 19 1a c 8 8 fffda5fb
FIXUPS: c03e 20 23 3e 22 20 15 18 23 23 3d 11 14 43 1f 26 25 20 15 18 23
FIXUPS: c313 20 1c 50 11 11 14 22 1a 33 25475 1c 1f c b b a fffda3d7 c
FIXUPS: bda7 35 c 3a 11 11 20 3c 25a94 8 8 8 8 8 8 a fffda584 15 10 14
FIXUPS: bfd3 20 1e fffffa2a 11 11 11 51 29 78 55 11 14 35 11 11 14 25b42
FIXUPS: 317a3 1d c b b 1c 1d c b b b b b 1c 1d c b fffd9d24 1b 23 23 5b
FIXUPS: b6a2 4d 14 37 9 1b 12 20 18 38 16 14 1f 1b 10 35 9 15 12 1f 22
FIXUPS: b984 11 11 36 11 11 fffff6d4 f 52 3a 14 2a 1c 15 2d 1c 14 2a 1c
FIXUPS: b2a4 24 20 18 1b 23 23 3c 29 40 19 56 29 1b 29 1f 78 24 20 26109
FIXUPS: 316de 18 f e e e b b b b b a fffd96e5 44 15 14 12 4e 25 1e 15 18
FIXUPS: afb5 23 1c 24 20 15 18 23 23 fffffb86 1f 1a 1a 14 7 26945 12 18
FIXUPS: 31626 f e e e b b b b b a fffd9624 d 60 20 20 20 1f 1a 1a 14 7
FIXUPS: 316b4 fffd93cb 26a95 12 18 18 f e e e b b b b b a fffd94d4 d 16
FIXUPS: aad4 d 16 d d 16 d d 16 d d 60 20 20 26830 fffd9421 1f 1f 1f 1f
FIXUPS: a8f8 1a 17 26b35 18 18 f e e e b b b b b a fffd943c d 60 20 20
FIXUPS: aa11 1f 1a 1a 14 268de a fffd9322 20 1f 24 c 34 c 34 c 34 c 34
FIXUPS: a7f1 26b8d 18 18 9 8 e 8 8 e 8 8 e 8 8 e 8 8 fffd902d d 16 d d
FIXUPS: a4b7 d d 16 d d 60 20 20 20 1f 1a 1a 14 7 26c75 12 18 18 f e e
FIXUPS: 3131f b b b b fffd8e29 1c 27064 a a fffd8fbe 10 44 3c 10 57 14
FIXUPS: 31214 8 8 8 8 a fffd90c7 3a 53 5f 17 26e4f b b b b a fffd91a7 d
FIXUPS: a457 26d52 12 e fffd8b4b d 13 d 13 d 13 d 13 d 13 d 13 d 13 d 23
FIXUPS: 9e31 39 5 26 27344 e fffd8ec4 d 19 5 75 7 fffff890 19 3d 19 20
FIXUPS: 9a8e 5f f4 19 3d 19 25 1d 1d 273fa 12 12 c b e c b e 12 12 12 c
FIXUPS: 31164 e c b e fffd844f 10 10 10 74 14 19 15 27998 8 a fffd868e
FIXUPS: 9711 4f 29 10 278ee a fffd8737 f d 1d 18 1b d 10 5 10 10 10 4b
FIXUPS: 9907 11e78 1a 9 d f f 42 25 21 c 18 16 16d55 8 8 16 b fffe92b1
FIXUPS: 1b8fb 6c 18 c 44 b6 10 10 16 16b69 16 b fffe94f0 fffedaac 11c9b
FIXUPS: 1b293 15 24 172d8 a fffe8d9c 45 19 26 86 71 d 23 d 12 d 13 d 8c
FIXUPS: 1b5f4 23 22 e 1c 9 25 c 25 16f02 a fffe9176 fffff178 42 50 bd 15
FIXUPS: 1ab4d 26 af cc 5a 1c c 8c c0 4d 32 43 1d 15 22 60 1e 1d 15 22 45
FIXUPS: 1b17d 56 36 24 f 1f ffffefc9 d 27 27 4d 47 9 15 9 d 181ee 9 a fffe7ea7
FIXUPS: 1a3f8 11 9 11 18131 a fffe7f4e 48 9 15 9 d 1805d 9 a fffe7ff2 2c0
FIXUPS: 1a853 fffff521 d 45 1b 1a 1a 1a 26 26 26 8d 26 26 25 21 26 26 26
FIXUPS: 1a0aa 21 41 4b 9 15 9 d 1837a 9 a fffe7ccf 1e d fffffabb 18 13
FIXUPS: 19d05 10 18675 1d f 1d f 1d f 1d a a 9 a 9 a 9 a 8 8 8 8 e 12 12
FIXUPS: 324dc e fffe786a d fffffca0 21 17 8 10 8 b 31 17 8 10 8 b 31 17
FIXUPS: 19b27 10 8 b 31 17 8 10 8 b 60 22 22 20 17 12 12 fffffa3b 3a 28
FIXUPS: 1978e 27 26 1c 23 8 10 8 b 2c 1c 23 8 10 8 b 2c 1c 1f 8 10 8 b
FIXUPS: 19999 1c 21 8 10 8 fffff8de d 36 29 19 c f 79 c c 24 18eec d b
FIXUPS: 32335 8 a fffe7180 2f 15 58 c c 24 18db6 a 8 a fffe72ce 2b 30 31
FIXUPS: 190c6 22 9 5 14 c 22 9 5 14 c 22 9 5 14 c 22 9 5 14 c 22 9 5 14
FIXUPS: 19256 22 9 5 14 c 22 193d5 a fffe9684 61 3e 2f 168be 8 8 a fffe97b3
FIXUPS: 1be91 40 9 9 9 27 1b 10 11 16798 b b a fffe694a 5 14 c 22 9 5 14
FIXUPS: 1c4e0 148 cf d ad 64 19 9 54 c1 23 a5 33 17 fffff10b 1b d 16 36
FIXUPS: 1bbf1 9 10 16 16a34 16 b fffe965b 10 1f f 16979 b 112 a fffea6d6
FIXUPS: 1ce91 24 a 15a 40 1e fffffa33 2c 2ff 10 10 16 15909 16 b fffe983c
FIXUPS: 1bf76 10 10 10 e4 7a e5 77 2a 19 16 18d 1b 1636d fffeb239 c0 16
FIXUPS: 1daf8 15 14cd7 a fffeacc6 d 5e 15225 a fffeae46 d 5b 35 14 19 15
FIXUPS: 32764 a fffeaf76 d 5e 15035 a fffeb07e 3c 7 1d 11 150b1 a fffebbee
FIXUPS: 1e54a 7 5 81 7 21 14 14331 a a fffebcee 24 7 5 75 7 22 1c 14234
FIXUPS: 3296e a fffebdee 24 fffff12d b9 14 19 15 14e12 e0 a a fffeb8ae
FIXUPS: 1e18a d 5f 2f 1469f 8 a fffeb9e7 45 7 1d 11 145ad a fffeba9f 45
FIXUPS: 1e3d9 1d 11 144fd a fffebb23 5 81 7 21 14 14431 fffeb4c7 14a59
FIXUPS: 3284e fffeb5d9 a 5 75 7 22 1c 14974 a a fffeb6ae 24 7 5 75 7 22
FIXUPS: 1e010 14874 a a fffeb7ae 24 7 5 75 7 22 1c 18ad 45 7 1d 11 1314d
FIXUPS: 32bae fffeceff 45 7 1d 11 1309d a fffebbc9 80 fffff3af 2f 14c0f
FIXUPS: 3280c a fffeb477 3c 14 19 15 14b19 a fffeb53f 3c 14 19 1847 45
FIXUPS: 1f669 1d 11 1348d a fffecbbf 45 7 1d 11 133dd a fffecc67 1f d 16
FIXUPS: 1f82d 3c 14 19 15 132b9 a fffecd9f 45 7 1d 11 131fd a fffec69f
FIXUPS: 1f269 14 19 15 137f9 a fffec85f 3c 14 19 15 13739 a fffec917 1f
FIXUPS: 1f411 16 46 3c 14 19 15 135f9 a fffeca5f 45 7 1d 11 1353d a fffec2ff
FIXUPS: 1ee49 14 19 15 13b99 a fffec4bf 3c 14 19 15 13ad9 a fffec5a7 1f
FIXUPS: 1f021 16 36 3c 14 19 15 13979 a fffec6df 3c 14 19 15 138b9 a fffebf98
FIXUPS: 1ea31 5 81 7 21 14 13eb1 a a fffec16e 10 51 13e3d a fffec216 d
FIXUPS: 1ec07 46 3c 14 19 15 13d19 a fffec33f 3c 14 19 15 13c59 a fffed2bc
FIXUPS: 1fd03 52 79 84 38 22 31 3f 40 2f 32 4a 2f 4d 1c c6 66 33 22 11c
FIXUPS: 203bc ffffe565 5 75 7 22 1c 13fa4 a a fffec07e 225b 14 11 15 1c
FIXUPS: 20d53 1d 78 f 39 68 c 147 1d c 13f 35 20 20 fffff376 4d f 46 41
FIXUPS: 206e9 bc fffffd48 fffff699 46 4c 3b 3b 1c94 7c 33 22 1a 3b 1c d4
FIXUPS: 21b6f 13 13 41 37 13 13 1c 23 ffffec16 1c 1b 12 23 94 27 160 1f
FIXUPS: 20b7b 1f 59 42 14 14 12bc 30 14 18 2a 38 37 2b fffff377 55 8f 48
FIXUPS: 21502 2c 1b 1d 15 d3 33 22 1a 3b 1c d4 37 13 13 41 37 13 13 1c
FIXUPS: 14da b 7f 1a 4f c 11 1e 37 1b 21 16c 31 15 37 13 41 4b 9d 2038c
FIXUPS: 21d44 d 1d a 2c 4c 15 58 38 22 14 21 fffdf298 14 1d 12 29 1c 21
FIXUPS: 1244 7 c e 41 d 21 24 14 e 15 31 34 1d 39 f 21 26 9 2f3be a fffd0c64
FIXUPS: 147e 1b 8 94b 5fd db 21 12 15 47 d 2e2ef a fffd1d2b 9 d 1d 19 2e294
FIXUPS: 3086e fffd1d7d d 2e283 a fffd1d9e 7 17 ffffe9c5 92 39 1b 3a a 6
FIXUPS: 1149 9d9 1b 31 27 15 e 1b e 14 13 6 23 d 6 a 6 e d 14 14 18 e 2eb73
FIXUPS: 30838 a fffd1495 d 16 28 21 d 26 10db 20 2c d 9 16 2db2d fffd251d
FIXUPS: 2f2e f 1b 10 4a 36 a 11 c 1a 23 ffffe9b3 1b 16 22 23 2eda7 c fffd1276
FIXUPS: 1aa4 15 26 1b 18 109d 19 a 1e 12 1e 12 14 1d e 23 1c c 12 2dcce
FIXUPS: 309a4 8 16 9 a fffd232f 17 23 2dca2 a fffd2397 15 12 3b 3d b 19
FIXUPS: 3092f a fffd202a 13 20 f 2df9f 8 a fffd206a 1b e 2df77 b b a fffd207d
FIXUPS: 2a03 5 13 16 17 46 3e 12 e 1f 2a 1c 1c 2de1b a fffd1ed0 c c c c
FIXUPS: 289e f 12 f 2dfc5 b 8 8 8 b 8 8 b 8 8 8 b b a fffd1fd7 27 c 14
FIXUPS: 293e 9 2dfd5 8 fffd1d61 a c a 23 10 d d d 10 d 11 e e 11 11 6 17
FIXUPS: 279f f 11 6 11 12 7 11 12 e c f f c 3729 21 32 9 1b 22 34 26 c
FIXUPS: 60a7 24 c 10 3e 31 26 2d 1a 2ace7 fffd534a 1e 3f 29 20 2ac1c fffd1796
FIXUPS: 2651 a a c 5 5 3565 14 2d 13 13 1a 2d 1e e 2b1c1 d fffd4e5c 29
FIXUPS: 5d1f 32 7 f 2e 1d e 2b0d3 d fffd4f51 8 9a 50 1d b 10 7 28 b fffff7e8
FIXUPS: 5749 f f 2b6c1 8 8 16 b fffd496e e 8 8a 49 64 61 f 2d 9 3c 31 1b
FIXUPS: 5acf 14 2e 15 1b 21 2b302 a fffd4d4a 14 fffff877 1f 7 2b983 8 8
FIXUPS: 30e06 fffd467f 32 1b 23 19 1e 10 32 1f 9 b 2b872 d fffd4788 2f
FIXUPS: 55fd 23 9 98 19 17 8 c f e fffffa7d 16 1f 1a 1d 11 18 2bb6c a fffd44b6
FIXUPS: 5287 1c 10 2bb04 b a fffd44ff 23 1a e 2bac0 fffd455c 23 1a e 2ba65
FIXUPS: 5397 d 1a 1b 3f 17 fffff6fd 2c24c a fffd3dea 9 21 dc a3 29 b 3f
FIXUPS: 4d99 3f c0 49 7e 82 6 13 1a b 2bd6d a fffd42bc 17 1c 4a 1c c 1d
FIXUPS: 5142 2f fffff678 1f 14 8 f 8 c 2c4ed a fffd3b49 17 1d e0 27 c 2c37a
FIXUPS: 30d52 fffd3c97 e d 77 c b 2c2ca 8 a fffd3d4b 2d d 11 16 7 fffff9fc
FIXUPS: 30cdc a fffd384c a 26 9 2c788 a fffd3896 18 29 9 21 8 11 10 25
FIXUPS: 4675 b 2c68b d fffd3972 10 e 2c678 a fffd39b7 1a 30 d 3e fffffafa
FIXUPS: 427d 1c 7 d 1d a 34 1b 15 18 1e 11 35 22 9 b 2c8ac fffd376d 2d
FIXUPS: 4439 2c86a a fffd37a5 20 2a 2c82d b fffd37e2 29 23 f fffffb54 f
FIXUPS: 409c f d 1d 11 1b 2cb1f c b a fffd34ec 2a 2cafb a fffd3526 b 26
FIXUPS: 41d0 10 2ca84 a fffd358b e 1d 15 2ca3f 8 a fffd35c7 d fffffbc8
FIXUPS: 3e31 17 1b 17 1d 17 c f 2ccd3 8 16 b fffd3335 28 12 21 41 2cc3a
FIXUPS: 30bda fffd33da a f f 2cc08 a fffd3409 1d 10 2cbd4 a fffd3448 fffffbb9
FIXUPS: 3c22 19 1c 19 21 f 2cea8 8 8 8 8 8 a fffd3143 d 2cebd a fffd3182
FIXUPS: 3d22 14 21 2f 11 6 19 c 17 6 13 17 6 fffffb8f 2d16e b b a fffd2ea8
FIXUPS: 39fb 14 10 e 1f 2b f 1f d 13 2a 7 1b f 9 10 e 2cfed a fffd3022
FIXUPS: 3b80 16 1e d 23 12 fffffc53 10 c c c 15 11 10 11 10 11 c f 2d19c
FIXUPS: 30aa4 b 8 8 8 8 a fffd2e45 1b e 2d19d b b a fffd2e5e 7 c 1b fffffc2f
FIXUPS: 35ca b 58 b b 6 16 6 16 1b b 16 31 2d398 8 a fffd2c71 a 1a 16 1c
FIXUPS: 376a 8 1b 33 c c e 19 18 12 2d213 8 8 8 a fffd292f d c f 23 17
FIXUPS: 33fa 13 6 12 6 e 6 d 2d61f a fffd29fc 52 1e 1d 7 1c 4a 13 20 a
FIXUPS: 35b2 fffffb18 23 34 18 33 b 24 10 2e 10 24 a 2a 9 19 e 19 e 46
FIXUPS: 32ef f 29 2d6dc 8 8 a a c fffd28fe 1c f 12 302e 18 13 1b 43 1a
FIXUPS: 644c 6 b d 12 13 13 8 2aa2a 8 a fffd55e1 1c 27 19 26 ffffcb28 5
FIXUPS: 3080 a c 5 5 a a c 405a 19 11 e 1b c 16 18 e 12 19 11 5c 11 fffff328
FIXUPS: 65b5 bf 5c 63 3f 26 c fffffb3c 1b 22 1e 2ab85 c fffd548f 6 d 13
FIXUPS: 6d1b 17 18 1e 10 f 2d 4b 11 11 10 d 1d 1a 14 18 18 18 12 c5 29
FIXUPS: 7007 1b 1b 16 1b 1b 16 1b 1b 17 17 fffff894 f 18 16 7c 17 13 17
FIXUPS: 6aaa 9 e f 20 1e 28 2a 1b 13 13 11 e 21 14 21 11 31 a b e 14 d
FIXUPS: 6cb0 95f c 298ed a fffd6375 35 1c 15 b 31 3e 1a 32 10 11 1d b 17
FIXUPS: 741e fffff41a 25 22 1d 25 1e 39 14 10 10 10 10 15 aab 5 a a c 5
FIXUPS: 745b a a c a b 1f 16 1c 19 10 e 28 9 7 6 8 8 9 7 2997d a fffd6689
FIXUPS: 759d 25 27

 3925 bytes saved through ICF

